(dp0
S'Hashubah'
p1
I1
sS'Doeg'
p2
I5
sS'yellow'
p3
I3
sS'four'
p4
I158
sS'Jehoash'
p5
I17
sS'hanging'
p6
I18
sS'(And'
p7
I3
sS'Until'
p8
I5
sS'sevens'
p9
I2
sS'looking'
p10
I10
sS'Libnah'
p11
I15
sS'Peniel'
p12
I1
sS'Jedidiah'
p13
I1
sS'lord'
p14
I178
sS'meadows'
p15
I1
sS'slothful'
p16
I1
sS'hough'
p17
I1
sS'Hiel'
p18
I1
sS'figs'
p19
I6
sS'bringing'
p20
I8
sS'Lest'
p21
I13
sS'receiving'
p22
I1
sS'Jered'
p23
I2
sS'lionlike'
p24
I2
sS'Lachish'
p25
I15
sS'inheritances'
p26
I1
sS'bill'
p27
I2
sS'ligure'
p28
I2
sS'nigh'
p29
I40
sS'tired'
p30
I1
sS'mail'
p31
I2
sS'Bethbaalmeon'
p32
I1
sS'second'
p33
I90
sS'valiant'
p34
I20
sS'scraped'
p35
I2
sS'Hadoram'
p36
I3
sS'thunder'
p37
I6
sS'Bamoth'
p38
I2
sS'shocks'
p39
I1
sS'agreement'
p40
I1
sS'crouch'
p41
I1
sS'Horeb'
p42
I15
sS'Horem'
p43
I1
sS'herb'
p44
I13
sS'here'
p45
I72
sS'herd'
p46
I11
sS'Menahem'
p47
I8
sS'hers'
p48
I3
sS'Zeboiim'
p49
I2
sS'substance'
p50
I12
sS'Bealoth'
p51
I1
sS'climbed'
p52
I1
sS'controversy'
p53
I5
sS'Babylonish'
p54
I1
sS'Naphtuhim'
p55
I2
sS'cheereth'
p56
I1
sS'rebel'
p57
I9
sS'golden'
p58
I32
sS'whoso'
p59
I2
sS'divide'
p60
I29
sS'Shimrath'
p61
I1
sS'Three'
p62
I7
sS'brought'
p63
I419
sS'remnant'
p64
I19
sS'wipeth'
p65
I1
sS'Syrians'
p66
I55
sS'<s>'
p67
I10692
sS'Tadmor'
p68
I1
sS'therefore'
p69
I295
sS'strike'
p70
I4
sS'Ijeabarim'
p71
I2
sS'turtledoves'
p72
I6
sS'until'
p73
I229
sS'holy'
p74
I214
sS'Hammoleketh'
p75
I1
sS'Rule'
p76
I1
sS'hurt'
p77
I16
sS'hurl'
p78
I1
sS'midst'
p79
I96
sS'hold'
p80
I54
sS'Perizzite'
p81
I5
sS'locked'
p82
I2
sS'pursue'
p83
I18
sS'burneth'
p84
I3
sS'Hollow'
p85
I1
sS'confirmeth'
p86
I2
sS'oliveyard'
p87
I1
sS'stacte'
p88
I1
sS'leaped'
p89
I3
sS'vanities'
p90
I3
sS'melons'
p91
I1
sS'Lo'
p92
I9
sS'household'
p93
I39
sS'hunteth'
p94
I1
sS'dragons'
p95
I1
sS'Bariah'
p96
I1
sS'Achzib'
p97
I3
sS'want'
p98
I4
sS'Ira'
p99
I6
sS'reprove'
p100
I1
sS'Shiphrah'
p101
I1
sS'Hashabiah'
p102
I6
sS'Gazer'
p103
I2
sS'how'
p104
I86
sS'hot'
p105
I17
sS'patrimony'
p106
I1
sS'Kidron'
p107
I7
sS'Jamlech'
p108
I1
sS'A'
p109
I28
sS'Addar'
p110
I1
sS'beauty'
p111
I6
sS'Rekem'
p112
I5
sS'wrong'
p113
I6
sS'twined'
p114
I21
sS'calves'
p115
I7
sS'Jorkoam'
p116
I1
sS'Shimon'
p117
I1
sS'Nahari'
p118
I1
sS'wing'
p119
I11
sS'wind'
p120
I16
sS'wine'
p121
I62
sS'Even'
p122
I27
sS'dreamed'
p123
I15
sS'govern'
p124
I1
sS'profaned'
p125
I1
sS'Meholathite'
p126
I2
sS'sorroweth'
p127
I1
sS'rewarded'
p128
I4
sS'wrought'
p129
I42
sS'dreamer'
p130
I4
sS'fir'
p131
I9
sS'died)'
p132
I1
sS'His'
p133
I16
sS'wickedly'
p134
I7
sS'fit'
p135
I3
sS'heretofore'
p136
I7
sS'abominations'
p137
I13
sS'Zarhites'
p138
I6
sS'rescued'
p139
I2
sS'fig'
p140
I6
sS'nobles'
p141
I5
sS'hidden'
p142
I2
sS'Machir'
p143
I22
sS'easier'
p144
I1
sS'Goshen'
p145
I15
sS'Socho'
p146
I1
sS'grievous'
p147
I14
sS'enrich'
p148
I1
sS'Zichri'
p149
I7
sS'Seth'
p150
I7
sS'Commonly'
p151
I2
sS'Sojourn'
p152
I1
sS'raiseth'
p153
I1
sS'sixteen'
p154
I15
sS'silver'
p155
I169
sS'Helam'
p156
I2
sS'rumour'
p157
I1
sS'Sepharvaim'
p158
I4
sS'Shama'
p159
I1
sS'arrow'
p160
I7
sS'Hazezontamar'
p161
I1
sS'Curse'
p162
I2
sS'Ashbea'
p163
I1
sS'Pharez'
p164
I12
sS'garment'
p165
I35
sS'bowls'
p166
I19
sS'whit'
p167
I2
sS'message'
p168
I2
sS'borne'
p169
I3
sS'drove'
p170
I10
sS'Jaareoregim'
p171
I1
sS'encourage'
p172
I3
sS'Hemdan'
p173
I1
sS'Josiah'
p174
I16
sS'foundation'
p175
I7
sS'assured'
p176
I1
sS'fugitive'
p177
I2
sS'Meribbaal'
p178
I4
sS'grapes'
p179
I18
sS'estimate'
p180
I2
sS'knit'
p181
I3
sS'purtenance'
p182
I1
sS'eared'
p183
I1
sS'Hori'
p184
I4
sS'Shebah'
p185
I1
sS'Jehush'
p186
I1
sS'whirlwind'
p187
I2
sS'Mizraim'
p188
I4
sS'purpose'
p189
I2
sS'Levites'
p190
I129
sS'wast'
p191
I19
sS'channels'
p192
I1
sS'wash'
p193
I64
sS'instruct'
p194
I1
sS'bitten'
p195
I2
sS'service'
p196
I95
sS'Hazargaddah'
p197
I1
sS'master'
p198
I90
sS'blossoms'
p199
I2
sS'legs'
p200
I10
sS'bitter'
p201
I14
sS'rewards'
p202
I1
sS'bounty'
p203
I1
sS'wisdom'
p204
I32
sS'advisement'
p205
I1
sS'pulse'
p206
I1
sS'Bethlehemite'
p207
I4
sS'Dimnah'
p208
I1
sS'Potipherah'
p209
I3
sS'tree'
p210
I59
sS'nations'
p211
I96
sS'idle'
p212
I3
sS'causeless'
p213
I1
sS'endure'
p214
I2
sS'blasphemed'
p215
I3
sS'lawgiver'
p216
I3
sS'holden'
p217
I2
sS'groaning'
p218
I2
sS'Abishua'
p219
I4
sS'shrubs'
p220
I1
sS'(said'
p221
I1
sS'plenteousness'
p222
I1
sS'Abishur'
p223
I2
sS'Gazathites'
p224
I1
sS'Then'
p225
I488
sS'Them'
p226
I3
sS'Tizite'
p227
I1
sS'Asa'
p228
I28
sS'They'
p229
I61
sS'Hearest'
p230
I1
sS'Ask'
p231
I7
sS'Dothan'
p232
I3
sS'taxation'
p233
I1
sS'Seir'
p234
I27
sS'Chalcol'
p235
I1
sS'shall'
p236
I3453
sS'Jotham'
p237
I14
sS'unmindful'
p238
I1
sS'wells'
p239
I7
sS'toil'
p240
I2
sS'mouth'
p241
I85
sS'reverence'
p242
I4
sS'drought'
p243
I2
sS'shalt'
p244
I1057
sS'expound'
p245
I1
sS'singer'
p246
I1
sS'grove'
p247
I16
sS'camp'
p248
I123
sS'fugitives'
p249
I2
sS'Hupham'
p250
I1
sS'nineteenth'
p251
I3
sS'purged'
p252
I1
sS'came'
p253
I1110
sS'saying'
p254
I635
sS'departing'
p255
I2
sS'liest'
p256
I4
sS'fingers'
p257
I2
sS'thinketh'
p258
I1
sS'tempted'
p259
I3
sS'Shillem'
p260
I2
sS'apace'
p261
I1
sS'taketh'
p262
I12
sS'bush'
p263
I6
sS'Peradventure'
p264
I10
sS'touched'
p265
I14
sS'rich'
p266
I9
sS'foolishly'
p267
I5
sS'firstripe'
p268
I1
sS'plate'
p269
I3
sS'Nevertheless'
p270
I21
sS'champaign'
p271
I1
sS'Whithersoever'
p272
I1
sS'denounce'
p273
I1
sS'terrors'
p274
I1
sS'foremost'
p275
I3
sS'Jerubbesheth'
p276
I1
sS'altogether'
p277
I8
sS'Arbathite'
p278
I2
sS'givest'
p279
I2
sS'turnest'
p280
I1
sS'avenger'
p281
I6
sS'buyest'
p282
I2
sS'hasted'
p283
I16
sS'avenged'
p284
I10
sS'God-ward'
p285
I1
sS'release'
p286
I7
sS'Jahdo'
p287
I1
sS'Josibiah'
p288
I1
sS'subtilly'
p289
I1
sS'blew'
p290
I18
sS'fair'
p291
I10
sS'Heres'
p292
I1
sS'Joha'
p293
I2
sS'fail'
p294
I19
sS'hammer'
p295
I4
sS'best'
p296
I18
sS'Baalim'
p297
I8
sS'lots'
p298
I9
sS'Rise'
p299
I7
sS'rings'
p300
I39
sS'droves'
p301
I1
sS'scorn'
p302
I1
sS'Cush'
p303
I6
sS'preserve'
p304
I5
sS'claws'
p305
I1
sS'Moriah'
p306
I2
sS'never'
p307
I10
sS'rolled'
p308
I3
sS'smelled'
p309
I2
sS'establisheth'
p310
I1
sS'Gibea'
p311
I1
sS'(behold'
p312
I1
sS'Alammelech'
p313
I1
sS'Thahash'
p314
I1
sS'Hammath'
p315
I1
sS'pity'
p316
I6
sS'sacrificing'
p317
I2
sS'corrupted'
p318
I6
sS'country'
p319
I86
sS'damsels'
p320
I2
sS'Mishma'
p321
I4
sS'Blessed'
p322
I32
sS'incense'
p323
I69
sS'adventured'
p324
I1
sS'asked'
p325
I39
sS'calamus'
p326
I1
sS'Seled'
p327
I2
sS'vail'
p328
I32
sS'vain'
p329
I16
sS'gopher'
p330
I1
sS'useth'
p331
I1
sS'slay'
p332
I62
sS'fro'
p333
I2
sS'.'
p334
I9723
sS'twain'
p335
I2
sS'much'
p336
I70
sS'Gideoni'
p337
I5
sS'Jezreelite'
p338
I8
sS'unleavened'
p339
I45
sS'Peulthai'
p340
I1
sS'life'
p341
I126
sS'spit'
p342
I3
sS'Benhanan'
p343
I1
sS'onyx'
p344
I8
sS'Kenath'
p345
I2
sS'lift'
p346
I23
sS'child'
p347
I101
sS'doth'
p348
I50
sS'spin'
p349
I1
sS'teraphim'
p350
I5
sS'Beware'
p351
I6
sS'Zererath'
p352
I1
sS'employ'
p353
I1
sS'Beersheba'
p354
I27
sS'played'
p355
I10
sS'obeying'
p356
I2
sS'player'
p357
I1
sS'Jochebed'
p358
I2
sS'eighteen'
p359
I13
sS'Obededom'
p360
I19
sS'trusted'
p361
I4
sS'memorial'
p362
I23
sS'feebler'
p363
I1
sS'Zabad'
p364
I4
sS'things'
p365
I170
sS'woollen'
p366
I6
sS'rebellion'
p367
I3
sS'Dodai'
p368
I1
sS'boiled'
p369
I2
sS'tops'
p370
I5
sS'walkest'
p371
I3
sS'marched'
p372
I1
sS'Tibhath'
p373
I1
sS'Ebiasaph'
p374
I3
sS'Shitrai'
p375
I1
sS'Asriel'
p376
I2
sS'Cease'
p377
I1
sS'Perizzites'
p378
I15
sS'Beeliada'
p379
I1
sS'opinions'
p380
I1
sS'outlived'
p381
I1
sS'THAT'
p382
I1
sS'distribute'
p383
I1
sS'forsaken'
p384
I12
sS'beset'
p385
I2
sS'disguise'
p386
I2
sS'maketh'
p387
I16
sS'groweth'
p388
I6
sS'divination'
p389
I4
sS'Happy'
p390
I3
sS'ease'
p391
I3
sS'had'
p392
I840
sS'Asshurim'
p393
I1
sS'ewes'
p394
I2
sS'Surely'
p395
I27
sS'innocent'
p396
I11
sS'prison'
p397
I16
sS'hap'
p398
I1
sS'east'
p399
I58
sS'espoused'
p400
I1
sS'elders'
p401
I95
sS'confection'
p402
I1
sS'lengthen'
p403
I1
sS'birth'
p404
I2
sS'shadow'
p405
I8
sS'Abana'
p406
I1
sS'desire'
p407
I20
sS'pavement'
p408
I1
sS'steps'
p409
I4
sS'chanceth'
p410
I1
sS'covereth'
p411
I10
sS'right'
p412
I126
sS'old'
p413
I194
sS'people'
p414
I1003
sS'crown'
p415
I21
sS'captive'
p416
I14
sS'warring'
p417
I1
sS'rebellest'
p418
I1
sS'creep'
p419
I4
sS'enemies'
p420
I111
sS'Gileadite'
p421
I7
sS'for'
p422
I2815
sS'bottom'
p423
I10
sS'rehearse'
p424
I2
sS'sowed'
p425
I2
sS'betimes'
p426
I1
sS'Armenia'
p427
I1
sS'serpents'
p428
I5
sS'defileth'
p429
I3
sS'Thine'
p430
I6
sS'yoke'
p431
I18
sS'bowing'
p432
I1
sS'shaken'
p433
I3
sS'First'
p434
I5
sS'Zarephath'
p435
I2
sS'gleaning'
p436
I2
sS'thitherward'
p437
I1
sS'despair'
p438
I1
sS'lacked'
p439
I5
sS'Jethro'
p440
I10
sS'meddle'
p441
I2
sS'eightieth'
p442
I1
sS'raised'
p443
I10
sS'unrighteousness'
p444
I2
sS'sod'
p445
I1
sS'pertaining'
p446
I2
sS'Amoz'
p447
I3
sS'nought'
p448
I4
sS'Abimael'
p449
I2
sS'son'
p450
I1303
sS'Aaron'
p451
I325
sS'Asrielites'
p452
I1
sS'sow'
p453
I11
sS'journeying'
p454
I2
sS'despised'
p455
I14
sS'handmaidens'
p456
I2
sS'suffice'
p457
I4
sS'greatness'
p458
I11
sS'Amraphel'
p459
I2
sS'happy'
p460
I1
sS'Peninnah'
p461
I3
sS'therefrom'
p462
I3
sS'offer'
p463
I168
sS'talents'
p464
I27
sS'Jiphtah'
p465
I1
sS'safeguard'
p466
I1
sS'Sodi'
p467
I1
sS'Seeing'
p468
I1
sS'humbled'
p469
I6
sS'Meroz'
p470
I1
sS'inside'
p471
I1
sS'Ziphah'
p472
I1
sS'Merom'
p473
I2
sS'palm'
p474
I15
sS'proved'
p475
I5
sS'Sit'
p476
I2
sS'Six'
p477
I11
sS'Aphek'
p478
I8
sS'Mizzah'
p479
I3
sS'Elnathan'
p480
I1
sS'cassia'
p481
I1
sS'Fifty'
p482
I2
sS'Sin'
p483
I4
sS'protested'
p484
I1
sS'floor'
p485
I11
sS'herdmen'
p486
I7
sS'AM'
p487
I3
sS'uttered'
p488
I4
sS'flood'
p489
I16
sS'Sheva'
p490
I2
sS'superfluous'
p491
I2
sS'circumcise'
p492
I4
sS"'s"
p493
I993
sS'palms'
p494
I2
sS'Shalisha'
p495
I1
sS'Kabzeel'
p496
I3
sS'ointment'
p497
I4
sS'frontlets'
p498
I3
sS'cleaved'
p499
I1
sS'maimed'
p500
I1
sS'sinneth'
p501
I5
sS'comely'
p502
I1
sS'intent'
p503
I2
sS'Zorites'
p504
I1
sS'Jehiel'
p505
I8
sS'fastened'
p506
I8
sS'Berites'
p507
I1
sS'Jarib'
p508
I1
sS'Brought'
p509
I1
sS'time'
p510
I195
sS'push'
p511
I5
sS'conferred'
p512
I1
sS'overturned'
p513
I1
sS'Temani'
p514
I1
sS'breadth'
p515
I40
sS':)'
p516
I17
sS'chain'
p517
I2
sS':8'
p518
I24
sS':9'
p519
I32
sS':4'
p520
I21
sS':5'
p521
I27
sS':6'
p522
I21
sS':7'
p523
I20
sS':1'
p524
I17
sS':2'
p525
I41
sS':3'
p526
I33
sS'inhabited'
p527
I6
sS'vex'
p528
I6
sS'ephod'
p529
I50
sS'carpenters'
p530
I4
sS'oversight'
p531
I7
sS'Ethni'
p532
I1
sS'shepherds'
p533
I5
sS'choice'
p534
I9
sS'Eshbaal'
p535
I2
sS'mourn'
p536
I5
sS'stays'
p537
I2
sS'fretting'
p538
I3
sS'exact'
p539
I2
sS'Declare'
p540
I1
sS'cooks'
p541
I1
sS'tear'
p542
I1
sS'leave'
p543
I37
sS'Geba'
p544
I7
sS'Adonijah'
p545
I24
sS'shooters'
p546
I1
sS'blade'
p547
I2
sS'meadow'
p548
I2
sS'Shebarim'
p549
I1
sS'sign'
p550
I24
sS'lengthened'
p551
I1
sS'Gederah'
p552
I1
sS'candlestick'
p553
I30
sS'Sinite'
p554
I2
sS'jeopardy'
p555
I4
sS'axes'
p556
I3
sS'melt'
p557
I4
sS'current'
p558
I1
sS'Abelbethmaachah'
p559
I2
sS'Baalshalisha'
p560
I1
sS'falling'
p561
I2
sS'Me'
p562
I2
sS'sweeter'
p563
I1
sS'honour'
p564
I26
sS'Isui'
p565
I1
sS'understanding'
p566
I17
sS'alone'
p567
I32
sS'Zeboim'
p568
I3
sS'David'
p569
I888
sS'My'
p570
I50
sS'Helkath'
p571
I2
sS'redemption'
p572
I4
sS'endow'
p573
I1
sS'saws'
p574
I3
sS'title'
p575
I1
sS'uprightness'
p576
I5
sS'proclamation'
p577
I3
sS'rideth'
p578
I2
sS'Oboth'
p579
I4
sS'tasks'
p580
I1
sS'love'
p581
I32
sS'hostages'
p582
I1
sS'proportion'
p583
I1
sS'bloody'
p584
I5
sS'Irpeel'
p585
I1
sS'forefront'
p586
I6
sS'Ziph'
p587
I9
sS'perished'
p588
I4
sS'angry'
p589
I13
sS'imaginations'
p590
I1
sS'cherished'
p591
I1
sS'wondering'
p592
I1
sS'Those'
p593
I13
sS'wicked'
p594
I22
sS'artillery'
p595
I1
sS'Should'
p596
I4
sS'drams'
p597
I1
sS'refrain'
p598
I1
sS'odious'
p599
I1
sS'goods'
p600
I14
sS'riders'
p601
I1
sS'behalf'
p602
I2
sS'valued'
p603
I1
sS'Ethbaal'
p604
I1
sS'sanctified'
p605
I19
sS'Hushathite'
p606
I5
sS'privy'
p607
I2
sS'obeyedst'
p608
I1
sS'nether'
p609
I8
sS'dispossess'
p610
I2
sS'stature'
p611
I5
sS'believed'
p612
I8
sS'Our'
p613
I9
sS'Out'
p614
I10
sS'Kehelathah'
p615
I2
sS'frogs'
p616
I11
sS'Berachiah'
p617
I1
sS'locks'
p618
I3
sS'stole'
p619
I3
sS'regardest'
p620
I1
sS'winter'
p621
I1
sS'divided'
p622
I33
sS'Who'
p623
I54
sS'thanking'
p624
I1
sS'beans'
p625
I1
sS'Why'
p626
I40
sS'Horam'
p627
I1
sS'blasting'
p628
I2
sS'spot'
p629
I18
sS'such'
p630
I71
sS'suck'
p631
I5
sS'dove'
p632
I6
sS'natural'
p633
I1
sS'speakest'
p634
I3
sS'yielding'
p635
I5
sS'Gedor'
p636
I7
sS'thunders'
p637
I3
sS'darkened'
p638
I1
sS'Manahethites'
p639
I2
sS'Mushites'
p640
I2
sS'pulled'
p641
I2
sS'confectionaries'
p642
I1
sS'drunken'
p643
I4
sS'Eliab'
p644
I20
sS'Eliam'
p645
I2
sS'Paran'
p646
I10
sS'Eliah'
p647
I1
sS'years'
p648
I341
sS'putteth'
p649
I5
sS'yearn'
p650
I1
sS'trustedst'
p651
I1
sS'Zibia'
p652
I1
sS'Jehoram'
p653
I10
sS'thumb'
p654
I6
sS'torn'
p655
I10
sS'troubles'
p656
I2
sS'troubler'
p657
I1
sS'keepest'
p658
I2
sS'cursedst'
p659
I1
sS'decreased'
p660
I1
sS'troubled'
p661
I11
sS'dwellest'
p662
I4
sS'petition'
p663
I4
sS'thereby'
p664
I2
sS'nation'
p665
I40
sS'Serah'
p666
I2
sS'Ramathlehi'
p667
I1
sS'reckoning'
p668
I2
sS'twilight'
p669
I3
sS'Tubalcain'
p670
I2
sS'Zeredathah'
p671
I1
sS'shouted'
p672
I9
sS'leather'
p673
I1
sS'carcases'
p674
I9
sS'quarter'
p675
I5
sS'repaired'
p676
I6
sS'square'
p677
I1
sS'Shehariah'
p678
I1
sS'whosoever'
p679
I38
sS'Azekah'
p680
I4
sS'Heresh'
p681
I1
sS'Jeaterai'
p682
I1
sS'Neiel'
p683
I1
sS'entering'
p684
I23
sS'beetle'
p685
I1
sS'Deborah'
p686
I10
sS'Gamul'
p687
I1
sS'abide'
p688
I23
sS'Job'
p689
I1
sS'Bozrah'
p690
I2
sS'Habor'
p691
I3
sS'coverest'
p692
I1
sS'siege'
p693
I5
sS'seventh'
p694
I87
sS'Jekamiah'
p695
I2
sS'quite'
p696
I5
sS'Either'
p697
I3
sS'besides'
p698
I3
sS'Jeshishai'
p699
I1
sS'dresseth'
p700
I1
sS'remainder'
p701
I5
sS'seventy'
p702
I33
sS'liberally'
p703
I1
sS'workmanship'
p704
I5
sS'Ammon'
p705
I75
sS'disguised'
p706
I3
sS'backside'
p707
I2
sS'recompense'
p708
I4
sS'pleaseth'
p709
I3
sS'saving'
p710
I1
sS'spoken'
p711
I77
sS'one'
p712
I715
sS'submit'
p713
I2
sS'habitation'
p714
I9
sS'open'
p715
I31
sS'city'
p716
I390
sS'wrath'
p717
I28
sS'Giblites'
p718
I1
sS'2'
p719
I22
sS'Jokmeam'
p720
I1
sS'begotten'
p721
I5
sS'snuffers'
p722
I5
sS'on)'
p723
I1
sS'Mikneiah'
p724
I2
sS'Joshah'
p725
I1
sS'Ophir'
p726
I7
sS'Jozabad'
p727
I2
sS'Tishbite'
p728
I6
sS'Netophathite'
p729
I7
sS'Jerijah'
p730
I1
sS'herds'
p731
I25
sS'storehouses'
p732
I3
sS'Seven'
p733
I9
sS'bored'
p734
I1
sS'exacted'
p735
I2
sS'folly'
p736
I8
sS'Shemiramoth'
p737
I3
sS'coats'
p738
I7
sS'Amasa'
p739
I15
sS'wandering'
p740
I1
sS'Migdalgad'
p741
I1
sS'Kedemoth'
p742
I4
sS'turned'
p743
I124
sS'jewels'
p744
I13
sS'sad'
p745
I3
sS'say'
p746
I231
sS'rained'
p747
I2
sS'buried'
p748
I71
sS'lurking'
p749
I1
sS'saw'
p750
I216
sS'sat'
p751
I57
sS'warriors'
p752
I1
sS'knead'
p753
I1
sS'aside'
p754
I41
sS'instructed'
p755
I5
sS'take'
p756
I331
sS'Hali'
p757
I1
sS'instructer'
p758
I1
sS'darkish'
p759
I1
sS'knee'
p760
I1
sS'Nahalal'
p761
I1
sS'Irshemesh'
p762
I1
sS'drive'
p763
I38
sS'ways'
p764
I29
sS'bade'
p765
I8
sS'axe'
p766
I6
sS'Sheber'
p767
I1
sS'salt'
p768
I21
sS'trembled'
p769
I8
sS'laws'
p770
I5
sS'walking'
p771
I4
sS'Hereby'
p772
I4
sS'Sheth'
p773
I2
sS'Ethiopia'
p774
I2
sS'bright'
p775
I14
sS'Adadah'
p776
I1
sS'Hannathon'
p777
I1
sS'scarce'
p778
I1
sS'signets'
p779
I1
sS'Ephrath'
p780
I5
sS'spoons'
p781
I9
sS'slow'
p782
I2
sS'Ramah'
p783
I25
sS'Shamer'
p784
I2
sS'tears'
p785
I1
sS'going'
p786
I41
sS'Eliashib'
p787
I2
sS'uppermost'
p788
I1
sS'robe'
p789
I15
sS'Shamed'
p790
I1
sS'hindmost'
p791
I3
sS'rejoiced'
p792
I12
sS'Michah'
p793
I3
sS'condemning'
p794
I1
sS'Jerahmeelites'
p795
I2
sS'cursing'
p796
I4
sS'Rehoboth'
p797
I4
sS'Bashanhavothjair'
p798
I1
sS'Distress'
p799
I1
sS'settings'
p800
I1
sS'Geliloth'
p801
I1
sS'borrow'
p802
I7
sS'priest'
p803
I385
sS'uncover'
p804
I22
sS'where'
p805
I111
sS'vision'
p806
I8
sS'Meshech'
p807
I3
sS'espy'
p808
I1
sS'hastened'
p809
I3
sS'Babylon'
p810
I33
sS'Tola'
p811
I6
sS'requirest'
p812
I1
sS'Zophim'
p813
I1
sS'That'
p814
I69
sS'slander'
p815
I1
sS'Jonah'
p816
I1
sS'fierceness'
p817
I3
sS'Molech'
p818
I7
sS'refreshed'
p819
I4
sS'Hothan'
p820
I1
sS'Told'
p821
I1
sS'forsake'
p822
I17
sS'charmer'
p823
I1
sS'ascribed'
p824
I2
sS'Proclaim'
p825
I2
sS'spare'
p826
I5
sS'Chaldees'
p827
I11
sS'Mahlah'
p828
I4
sS'many'
p829
I73
sS'Jehaleleel'
p830
I1
sS'goodliest'
p831
I2
sS'allowance'
p832
I2
sS'yearly'
p833
I7
sS'husbandmen'
p834
I1
sS'constant'
p835
I1
sS'Hesed'
p836
I1
sS'boat'
p837
I1
sS'reconcile'
p838
I2
sS'caring'
p839
I1
sS'stretch'
p840
I12
sS'west'
p841
I23
sS'breath'
p842
I6
sS'practised'
p843
I1
sS'Ammizabad'
p844
I1
sS'Babel'
p845
I2
sS'wants'
p846
I1
sS'thousand'
p847
I305
sS'formed'
p848
I5
sS'observe'
p849
I33
sS'former'
p850
I8
sS'felling'
p851
I1
sS'Asuppim'
p852
I2
sS'profane'
p853
I15
sS'scarlet'
p854
I38
sS'polls'
p855
I6
sS'mighties'
p856
I2
sS'Him'
p857
I3
sS'Ahban'
p858
I1
sS'Dannah'
p859
I1
sS'Jozachar'
p860
I1
sS'situation'
p861
I1
sS'chamois'
p862
I1
sS'transgressions'
p863
I5
sS'Juttah'
p864
I2
sS'Nemuelites'
p865
I1
sS'journeyings'
p866
I1
sS'Attai'
p867
I3
sS'fame'
p868
I9
sS'mercies'
p869
I3
sS'verified'
p870
I3
sS'Mesobaite'
p871
I1
sS'perpetually'
p872
I1
sS'Jeshurun'
p873
I3
sS'Through'
p874
I1
sS'Chimham'
p875
I3
sS'wires'
p876
I1
sS'sickness'
p877
I7
sS'I'
p878
I2437
sS'defy'
p879
I5
sS'edges'
p880
I3
sS'Iron'
p881
I1
sS'Slay'
p882
I2
sS'flocks'
p883
I49
sS'Tahpenes'
p884
I3
sS'Hillel'
p885
I2
sS'Mishal'
p886
I1
sS'Misham'
p887
I1
sS'lambs'
p888
I54
sS'summer'
p889
I5
sS'being'
p890
I52
sS'slime'
p891
I2
sS'rest'
p892
I117
sS'Daniel'
p893
I1
sS'tare'
p894
I2
sS'planets'
p895
I1
sS'(a'
p896
I1
sS'Judith'
p897
I1
sS'provocation'
p898
I2
sS'wheaten'
p899
I1
sS'Dabareh'
p900
I1
sS'Laish'
p901
I6
sS'instrument'
p902
I1
sS'(I'
p903
I2
sS'overthrow'
p904
I8
sS'Medad'
p905
I2
sS'joyful'
p906
I1
sS'skies'
p907
I1
sS'lowing'
p908
I2
sS'dark'
p909
I9
sS'world'
p910
I3
sS'snare'
p911
I8
sS'meat'
p912
I143
sS'stranger'
p913
I88
sS'clad'
p914
I1
sS'offenders'
p915
I1
sS'Notwithstanding'
p916
I15
sS'Isuah'
p917
I1
sS'owneth'
p918
I1
sS'Jagur'
p919
I1
sS'Jehoiachin'
p920
I6
sS'Ephratah'
p921
I3
sS'divine'
p922
I2
sS'Abijam'
p923
I5
sS'saidst'
p924
I9
sS'revenger'
p925
I6
sS'revenges'
p926
I1
sS'noon'
p927
I7
sS'Tibni'
p928
I3
sS'Pharaoh'
p929
I236
sS'situate'
p930
I1
sS'leaned'
p931
I3
sS'Buz'
p932
I2
sS'power'
p933
I27
sS'Raamah'
p934
I4
sS'sprung'
p935
I3
sS'Asahiah'
p936
I2
sS';)'
p937
I19
sS'prepared'
p938
I26
sS'stone'
p939
I91
sS'swarms'
p940
I5
sS'meal'
p941
I8
sS'bond'
p942
I7
sS'Naphish'
p943
I2
sS'Dizahab'
p944
I1
sS'burning'
p945
I19
sS'No'
p946
I8
sS'Away'
p947
I1
sS'jasper'
p948
I2
sS'parties'
p949
I1
sS'hew'
p950
I7
sS'her'
p951
I939
sS'glean'
p952
I9
sS'Shelah'
p953
I11
sS'worshippers'
p954
I5
sS'sealed'
p955
I2
sS'hem'
p956
I5
sS'Chozeba'
p957
I1
sS'yearned'
p958
I1
sS'complete'
p959
I1
sS'Shimei'
p960
I34
sS'MeribahKadesh'
p961
I1
sS'Micha'
p962
I1
sS'Zechariah'
p963
I12
sS'pluckt'
p964
I1
sS'Shobach'
p965
I2
sS'mice'
p966
I4
sS'with'
p967
I2394
sS'abused'
p968
I1
sS'pull'
p969
I1
sS'Zalmon'
p970
I2
sS'</TEXT>'
p971
I13
sS'couching'
p972
I1
sS'impute'
p973
I2
sS'Bered'
p974
I2
sS'gone'
p975
I75
sS'Hod'
p976
I1
sS'certain'
p977
I29
sS'forgot'
p978
I1
sS'am'
p979
I239
sS'an'
p980
I801
sS'How'
p981
I42
sS'as'
p982
I994
sS'Hor'
p983
I12
sS'at'
p984
I557
sS'midwife'
p985
I3
sS'tremble'
p986
I2
sS'sayest'
p987
I6
sS'athirst'
p988
I2
sS'Jakim'
p989
I2
sS'Jeriah'
p990
I2
sS'Orpah'
p991
I2
sS'Israelites'
p992
I16
sS'gifts'
p993
I8
sS'herbs'
p994
I6
sS'Bahurim'
p995
I5
sS'infirmity'
p996
I1
sS'Shallecheth'
p997
I1
sS'disdained'
p998
I1
sS'Susi'
p999
I1
sS'firebrand'
p1000
I1
sS'dyed'
p1001
I5
sS'openeth'
p1002
I6
sS'Hobah'
p1003
I1
sS'habergeon'
p1004
I2
sS'Shechemites'
p1005
I1
sS'Hobab'
p1006
I2
sS'minister'
p1007
I45
sS'(is'
p1008
I1
sS'consider'
p1009
I11
sS'caused'
p1010
I19
sS'beware'
p1011
I3
sS'passedst'
p1012
I1
sS'Timnathheres'
p1013
I1
sS'welfare'
p1014
I3
sS'causes'
p1015
I3
sS'Benhadad'
p1016
I21
sS'hunting'
p1017
I1
sS'to'
p1018
I5443
sS'tail'
p1019
I5
sS'Eat'
p1020
I4
sS'appointment'
p1021
I2
sS'returned'
p1022
I104
sS'Nahalol'
p1023
I1
sS'trustest'
p1024
I3
sS'amerce'
p1025
I1
sS'condition'
p1026
I1
sS'Noah'
p1027
I46
sS'accompanying'
p1028
I1
sS'marvellous'
p1029
I2
sS'laying'
p1030
I2
sS'joined'
p1031
I12
sS'large'
p1032
I4
sS'sang'
p1033
I4
sS'sand'
p1034
I11
sS'Pasdammim'
p1035
I1
sS'small'
p1036
I36
sS'Shibboleth'
p1037
I1
sS'sank'
p1038
I2
sS'Ahasbai'
p1039
I1
sS'Aphik'
p1040
I1
sS'Aphekah'
p1041
I1
sS'healed'
p1042
I13
sS'past'
p1043
I18
sS'honourable'
p1044
I10
sS'pass'
p1045
I438
sS'turning'
p1046
I1
sS'destitute'
p1047
I1
sS'Thrice'
p1048
I1
sS'Izri'
p1049
I1
sS'Rinnah'
p1050
I1
sS'Michaiah'
p1051
I1
sS'Ahiman'
p1052
I4
sS'Seest'
p1053
I1
sS'prevailed'
p1054
I21
sS'nurse'
p1055
I8
sS'full'
p1056
I81
sS'leaping'
p1057
I1
sS'deceitfully'
p1058
I4
sS'hast'
p1059
I347
sS'ascending'
p1060
I2
sS'Caphtorim'
p1061
I1
sS'experience'
p1062
I1
sS'mouldy'
p1063
I2
sS'Jared'
p1064
I5
sS'Jehiah'
p1065
I1
sS'sweetness'
p1066
I2
sS'forasmuch'
p1067
I9
sS'followed'
p1068
I41
sS'marriages'
p1069
I3
sS'beheld'
p1070
I10
sS'Ammihud'
p1071
I10
sS'attendance'
p1072
I1
sS'Josabad'
p1073
I1
sS'goeth'
p1074
I48
sS'graved'
p1075
I2
sS'6'
p1076
I28
sS'Mozah'
p1077
I1
sS'more'
p1078
I167
sS'door'
p1079
I115
sS'company'
p1080
I32
sS'Hukkok'
p1081
I1
sS'spoils'
p1082
I2
sS'jealousies'
p1083
I1
sS'pursuers'
p1084
I5
sS'Johanan'
p1085
I7
sS'foundations'
p1086
I3
sS'cunning'
p1087
I24
sS'blemishes'
p1088
I1
sS'keeping'
p1089
I4
sS'Gods'
p1090
I2
sS'Shebam'
p1091
I1
sS'Bethul'
p1092
I1
sS'Joezer'
p1093
I1
sS'learn'
p1094
I7
sS'grope'
p1095
I1
sS'male'
p1096
I40
sS'Your'
p1097
I6
sS'beautiful'
p1098
I5
sS'Zarthan'
p1099
I1
sS'Samaria'
p1100
I68
sS'scab'
p1101
I6
sS'accept'
p1102
I7
sS'Sheleph'
p1103
I2
sS'Laban'
p1104
I55
sS'pommels'
p1105
I3
sS'dress'
p1106
I9
sS'Chorashan'
p1107
I1
sS'condemn'
p1108
I2
sS'Zipporah'
p1109
I3
sS'enlarge'
p1110
I5
sS'Helkathhazzurim'
p1111
I1
sS'(they'
p1112
I1
sS'waved'
p1113
I6
sS'wiles'
p1114
I1
sS'sprinkle'
p1115
I27
sS'anoint'
p1116
I25
sS'smiting'
p1117
I4
sS'Ataroth'
p1118
I5
sS'shearers'
p1119
I2
sS'waves'
p1120
I1
sS'pleaded'
p1121
I1
sS'straitness'
p1122
I3
sS'fallowdeer'
p1123
I1
sS'Arba'
p1124
I3
sS'Hebrew'
p1125
I12
sS'granted'
p1126
I2
sS'Zachariah'
p1127
I4
sS'grasshoppers'
p1128
I3
sS'pans'
p1129
I3
sS'passages'
p1130
I3
sS'Bethdagon'
p1131
I2
sS'trade'
p1132
I4
sS'sinning'
p1133
I2
sS'Zephonites'
p1134
I1
sS'brim'
p1135
I9
sS'signs'
p1136
I18
sS'its'
p1137
I1
sS'Benjamin'
p1138
I119
sS'deeds'
p1139
I2
sS'wipe'
p1140
I1
sS'Jabin'
p1141
I7
sS'scribes'
p1142
I2
sS'cherubims'
p1143
I41
sS'Cherethites'
p1144
I8
sS'Michael'
p1145
I8
sS'comforted'
p1146
I7
sS'Chenaanah'
p1147
I3
sS'idols'
p1148
I13
sS'Bunah'
p1149
I1
sS'Hadarezer'
p1150
I12
sS'likeness'
p1151
I12
sS'coping'
p1152
I1
sS'always'
p1153
I8
sS'Gazites'
p1154
I1
sS'courses'
p1155
I6
sS'Arise'
p1156
I25
sS'found'
p1157
I154
sS'(but'
p1158
I2
sS'Rosh'
p1159
I1
sS'prophesying'
p1160
I2
sS'Nahaliel'
p1161
I2
sS'missed'
p1162
I3
sS'roes'
p1163
I1
sS'hearkenedst'
p1164
I1
sS'scrabbled'
p1165
I1
sS'highway'
p1166
I6
sS'risen'
p1167
I10
sS'Shelomoth'
p1168
I2
sS'vinedressers'
p1169
I1
sS'murmur'
p1170
I7
sS'heads'
p1171
I55
sS'reproach'
p1172
I9
sS'plowing'
p1173
I1
sS'Midian'
p1174
I35
sS'Haradah'
p1175
I2
sS'reared'
p1176
I9
sS'retained'
p1177
I2
sS'betrothed'
p1178
I9
sS'prospered'
p1179
I5
sS'castle'
p1180
I2
sS'Dread'
p1181
I1
sS'rooted'
p1182
I1
sS'slipped'
p1183
I1
sS'Zobah'
p1184
I11
sS'number'
p1185
I101
sS'Midianitish'
p1186
I3
sS'murmured'
p1187
I8
sS'sowedst'
p1188
I1
sS'Sprinkle'
p1189
I1
sS'peaceable'
p1190
I3
sS'Sered'
p1191
I2
sS'hallowed'
p1192
I18
sS'vowed'
p1193
I14
sS'Jeconiah'
p1194
I2
sS'peaceably'
p1195
I6
sS'longing'
p1196
I1
sS'soothsayer'
p1197
I1
sS'Hamuel'
p1198
I1
sS'stairs'
p1199
I2
sS'grace'
p1200
I26
sS'Jathniel'
p1201
I1
sS'Ziklag'
p1202
I14
sS'determined'
p1203
I6
sS'marriage'
p1204
I1
sS'Shiloh'
p1205
I27
sS'Gibeath'
p1206
I1
sS'Azareel'
p1207
I3
sS'sell'
p1208
I16
sS'Hannah'
p1209
I13
sS'foals'
p1210
I1
sS'self'
p1211
I1
sS'Kirjatharba'
p1212
I5
sS'also'
p1213
I468
sS'Sabtecha'
p1214
I1
sS'Jehoiakim'
p1215
I9
sS'play'
p1216
I8
sS'Jezliah'
p1217
I1
sS'Count'
p1218
I1
sS'darts'
p1219
I1
sS'Jeriel'
p1220
I1
sS'timbrel'
p1221
I1
sS'seize'
p1222
I1
sS'covet'
p1223
I3
sS'cover'
p1224
I26
sS'stoning'
p1225
I1
sS'Haniel'
p1226
I1
sS'Haggites'
p1227
I1
sS'brasen'
p1228
I22
sS'worshipping'
p1229
I1
sS'barren'
p1230
I10
sS'barrel'
p1231
I3
sS'If'
p1232
I164
sS'Malchijah'
p1233
I2
sS'Hai'
p1234
I2
sS'despise'
p1235
I3
sS'Ham'
p1236
I13
sS'gold'
p1237
I238
sS'Mithnite'
p1238
I1
sS'Had'
p1239
I1
sS'Achsah'
p1240
I4
sS'defended'
p1241
I1
sS'Bealiah'
p1242
I1
sS'Behold'
p1243
I215
sS'hornets'
p1244
I1
sS'occupation'
p1245
I2
sS'standeth'
p1246
I5
sS'writer'
p1247
I1
sS'Ziddim'
p1248
I1
sS'Abda'
p1249
I1
sS'failed'
p1250
I7
sS'Jidlaph'
p1251
I1
sS'Abdi'
p1252
I1
sS'giants'
p1253
I13
sS'magicians'
p1254
I9
sS'beams'
p1255
I7
sS'ceasing'
p1256
I1
sS'Benammi'
p1257
I1
sS'actions'
p1258
I1
sS'compass'
p1259
I17
sS'enemy'
p1260
I28
sS'devoured'
p1261
I12
sS'sucklings'
p1262
I1
sS'Help'
p1263
I2
sS'tumult'
p1264
I3
sS'cry'
p1265
I26
sS'sojourn'
p1266
I18
sS'Jehoshaphat'
p1267
I41
sS'kill'
p1268
I72
sS'weaver'
p1269
I5
sS'river'
p1270
I98
sS'Berodachbaladan'
p1271
I1
sS'Rabbith'
p1272
I1
sS'delicately'
p1273
I1
sS'set'
p1274
I264
sS'For'
p1275
I243
sS'Shobi'
p1276
I1
sS'see'
p1277
I152
sS'sea'
p1278
I134
sS'Jesharelah'
p1279
I1
sS'outward'
p1280
I3
sS'knees'
p1281
I13
sS'spirits'
p1282
I9
sS'Antothijah'
p1283
I1
sS'Ozni'
p1284
I1
sS'Joppa'
p1285
I1
sS'asswaged'
p1286
I1
sS'kneel'
p1287
I1
sS'Nethaneel'
p1288
I9
sS'knowing'
p1289
I2
sS'mildew'
p1290
I2
sS'Mered'
p1291
I2
sS'regardeth'
p1292
I1
sS'Against'
p1293
I2
sS'disallow'
p1294
I1
sS'Zadok'
p1295
I41
sS'wateredst'
p1296
I1
sS'Merari'
p1297
I36
sS'Sheminith'
p1298
I1
sS'last'
p1299
I8
sS'harps'
p1300
I10
sS'thou'
p1301
I2180
sS'Jekameam'
p1302
I2
sS'let'
p1303
I388
sS'Sitnah'
p1304
I1
sS'whole'
p1305
I57
sS'Hachmonite'
p1306
I1
sS'loaf'
p1307
I2
sS'asketh'
p1308
I3
sS'majesty'
p1309
I2
sS'drunk'
p1310
I15
sS'loan'
p1311
I1
sS'Naarah'
p1312
I3
sS'Naaran'
p1313
I1
sS'hollow'
p1314
I7
sS'Shamir'
p1315
I4
sS'suburbs'
p1316
I109
sS'contained'
p1317
I2
sS'Abiezer'
p1318
I7
sS'firm'
p1319
I2
sS'resting'
p1320
I1
sS'champion'
p1321
I3
sS'fire'
p1322
I231
sS'awake'
p1323
I3
sS'towns'
p1324
I35
sS'Fetch'
p1325
I1
sS'Phurah'
p1326
I2
sS'Zuriel'
p1327
I1
sS'joyfulness'
p1328
I1
sS'straight'
p1329
I3
sS'estimations'
p1330
I1
sS'Eran'
p1331
I1
sS'Consecrate'
p1332
I1
sS'pressed'
p1333
I6
sS'error'
p1334
I1
sS'swim'
p1335
I1
sS'pound'
p1336
I1
sS'binding'
p1337
I3
sS'vow'
p1338
I32
sS'uncovereth'
p1339
I3
sS'Hanniel'
p1340
I1
sS'Armoni'
p1341
I1
sS'chase'
p1342
I5
sS'Gittite'
p1343
I8
sS'Ishbosheth'
p1344
I12
sS'offence'
p1345
I1
sS'Tidal'
p1346
I2
sS'commune'
p1347
I3
sS'displeased'
p1348
I13
sS'snail'
p1349
I1
sS'affairs'
p1350
I1
sS'Elealeh'
p1351
I2
sS'Amaziah'
p1352
I18
sS'Edar'
p1353
I1
sS'Arbite'
p1354
I1
sS'Manna'
p1355
I1
sS'loathsome'
p1356
I1
sS'Phichol'
p1357
I3
sS'person'
p1358
I25
sS'plagues'
p1359
I8
sS'Philistine'
p1360
I33
sS'plagued'
p1361
I4
sS'</s>'
p1362
I10692
sS'Bethelite'
p1363
I1
sS'unto'
p1364
I4170
sS'unwalled'
p1365
I1
sS'chest'
p1366
I2
sS'pillars'
p1367
I71
sS'Jecholiah'
p1368
I1
sS'testimonies'
p1369
I7
sS'crying'
p1370
I2
sS'sojourning'
p1371
I2
sS'Arbah'
p1372
I1
sS'On'
p1373
I29
sS'doors'
p1374
I22
sS'plaistered'
p1375
I2
sS'Og'
p1376
I19
sS'Of'
p1377
I107
sS'couple'
p1378
I8
sS'wives'
p1379
I68
sS'baskets'
p1380
I3
sS'Methusael'
p1381
I2
sS'Or'
p1382
I22
sS'Bani'
p1383
I3
sS'continue'
p1384
I7
sS'tribes'
p1385
I82
sS'Bethpeor'
p1386
I4
sS'canst'
p1387
I6
sS'Pray'
p1388
I1
sS'spring'
p1389
I4
sS'chastised'
p1390
I2
sS'mighty'
p1391
I92
sS'Eluzai'
p1392
I1
sS'sight'
p1393
I175
sS'curious'
p1394
I9
sS'orderings'
p1395
I1
sS'possessest'
p1396
I1
sS'behave'
p1397
I2
sS'temple'
p1398
I23
sS'Anath'
p1399
I2
sS'be'
p1400
I2369
sS'weavest'
p1401
I1
sS'Look'
p1402
I5
sS'breastplate'
p1403
I25
sS'Haggeri'
p1404
I1
sS'confidence'
p1405
I2
sS'smiths'
p1406
I2
sS'Unstable'
p1407
I1
sS'respite'
p1408
I2
sS'by'
p1409
I908
sS'discontented'
p1410
I1
sS'anything'
p1411
I4
sS'Talmai'
p1412
I6
sS'ambush'
p1413
I7
sS'Aijalon'
p1414
I6
sS'Kore'
p1415
I3
sS'taches'
p1416
I10
sS'repair'
p1417
I7
sS'letter'
p1418
I10
sS'into'
p1419
I681
sS'Giah'
p1420
I1
sS'Ishmaelites'
p1421
I1
sS'span'
p1422
I5
sS'springeth'
p1423
I2
sS'harnessed'
p1424
I1
sS'chide'
p1425
I3
sS'custom'
p1426
I3
sS'suit'
p1427
I2
sS'Baalpeor'
p1428
I4
sS':'
p1429
I4855
sS'Eshek'
p1430
I1
sS'Hamor'
p1431
I13
sS'omers'
p1432
I1
sS'graciously'
p1433
I2
sS'Ishmeelites'
p1434
I4
sS'line'
p1435
I8
sS'Geder'
p1436
I1
sS'Lakum'
p1437
I1
sS'Azaziah'
p1438
I2
sS'redeemed'
p1439
I27
sS'<TEXT>'
p1440
I13
sS'up'
p1441
I947
sS'us'
p1442
I518
sS'flagon'
p1443
I2
sS'oblations'
p1444
I1
sS'brokenhanded'
p1445
I1
sS'consumed'
p1446
I36
sS'hornet'
p1447
I2
sS'Ashtaroth'
p1448
I11
sS'likewise'
p1449
I25
sS'haunt'
p1450
I2
sS'Asareel'
p1451
I1
sS'diverse'
p1452
I1
sS'wove'
p1453
I1
sS'Danites'
p1454
I4
sS'Jesuites'
p1455
I1
sS'favoureth'
p1456
I1
sS'Reaia'
p1457
I1
sS'scrape'
p1458
I1
sS'mattock'
p1459
I1
sS'victual'
p1460
I3
sS'Zur'
p1461
I5
sS'scapegoat'
p1462
I4
sS'Shuham'
p1463
I1
sS'besiege'
p1464
I7
sS'Onam'
p1465
I4
sS'Onan'
p1466
I8
sS'sides'
p1467
I28
sS'ago'
p1468
I2
sS'land'
p1469
I987
sS'wafer'
p1470
I3
sS'dealings'
p1471
I1
sS'age'
p1472
I21
sS'holes'
p1473
I1
sS'walked'
p1474
I45
sS'Oznites'
p1475
I1
sS'oracle'
p1476
I16
sS'fresh'
p1477
I1
sS'having'
p1478
I18
sS'dawning'
p1479
I2
sS'treasuries'
p1480
I4
sS'trode'
p1481
I6
sS'Ludim'
p1482
I2
sS'highways'
p1483
I4
sS'renown'
p1484
I2
sS'Moabitess'
p1485
I5
sS'Naashon'
p1486
I1
sS'seemed'
p1487
I4
sS'Maachathite'
p1488
I3
sS'young'
p1489
I146
sS'send'
p1490
I76
sS'(now'
p1491
I5
sS'Shamgar'
p1492
I2
sS'sent'
p1493
I324
sS'garden'
p1494
I21
sS'Muppim'
p1495
I1
sS'Gather'
p1496
I10
sS'Mesopotamia'
p1497
I5
sS'continued'
p1498
I7
sS'recorder'
p1499
I6
sS'marry'
p1500
I4
sS'fewer'
p1501
I1
sS'try'
p1502
I1
sS'daughers'
p1503
I2
sS'Jaazer'
p1504
I2
sS'Berith'
p1505
I1
sS'freed'
p1506
I1
sS'Alemeth'
p1507
I3
sS'pledge'
p1508
I12
sS'Jimna'
p1509
I1
sS'progenitors'
p1510
I1
sS'wheat'
p1511
I18
sS'odd'
p1512
I1
sS'Nebuchadnezzar'
p1513
I7
sS'expressed'
p1514
I3
sS'Machi'
p1515
I1
sS'henceforth'
p1516
I6
sS'Alas'
p1517
I9
sS'twins'
p1518
I2
sS'flowing'
p1519
I4
sS'bird'
p1520
I11
sS'led'
p1521
I14
sS'Berothite'
p1522
I1
sS'gathered'
p1523
I136
sS'spake'
p1524
I336
sS'busy'
p1525
I1
sS'poverty'
p1526
I1
sS'Succoth'
p1527
I16
sS'lappeth'
p1528
I2
sS'fifteen'
p1529
I15
sS'vinegar'
p1530
I3
sS'great'
p1531
I285
sS'revile'
p1532
I1
sS'Hadattah'
p1533
I1
sS'receive'
p1534
I17
sS'unwittingly'
p1535
I3
sS'marchedst'
p1536
I1
sS'scatter'
p1537
I8
sS'Pedaiah'
p1538
I4
sS'Elisha'
p1539
I58
sS'circumcising'
p1540
I1
sS'defeat'
p1541
I2
sS'bdellium'
p1542
I2
sS'Rejoice'
p1543
I2
sS'terrified'
p1544
I1
sS'sixty'
p1545
I11
sS'Dishan'
p1546
I5
sS'Hasshub'
p1547
I1
sS'standing'
p1548
I15
sS'Draw'
p1549
I6
sS'Elath'
p1550
I5
sS'ministers'
p1551
I1
sS'next'
p1552
I14
sS'eleven'
p1553
I14
sS'doubt'
p1554
I2
sS'midday'
p1555
I1
sS'Shaalabbin'
p1556
I1
sS'babe'
p1557
I1
sS'Abishalom'
p1558
I2
sS'fools'
p1559
I1
sS'Padanaram'
p1560
I10
sS'carrying'
p1561
I3
sS'Perezuzzah'
p1562
I1
sS'sharply'
p1563
I1
sS'Hasadiah'
p1564
I1
sS'Madai'
p1565
I2
sS'this'
p1566
I973
sS'Nepheg'
p1567
I4
sS'Izrahite'
p1568
I1
sS'Charashim'
p1569
I1
sS'pour'
p1570
I25
sS'chamberlain'
p1571
I1
sS'thin'
p1572
I8
sS'humbleth'
p1573
I2
sS'coffin'
p1574
I1
sS'wedge'
p1575
I2
sS'weaker'
p1576
I2
sS'slip'
p1577
I1
sS'process'
p1578
I4
sS'Isshiah'
p1579
I3
sS'rode'
p1580
I12
sS'pieces'
p1581
I40
sS'high'
p1582
I115
sS'Sirah'
p1583
I1
sS'Foursquare'
p1584
I1
sS'feignest'
p1585
I1
sS'Geshur'
p1586
I8
sS'rods'
p1587
I12
sS'paws'
p1588
I1
sS'trumpet'
p1589
I23
sS'Maaz'
p1590
I1
sS'destroying'
p1591
I6
sS'lusted'
p1592
I1
sS'delay'
p1593
I1
sS'Ishma'
p1594
I1
sS'Jimnites'
p1595
I1
sS'Nathan'
p1596
I36
sS'singular'
p1597
I1
sS'Jarah'
p1598
I2
sS'tied'
p1599
I4
sS'halted'
p1600
I1
sS'vineyards'
p1601
I21
sS'Gizonite'
p1602
I1
sS'Jerubbaal'
p1603
I14
sS'hawk'
p1604
I4
sS'Ono'
p1605
I1
sS'vestures'
p1606
I1
sS'Meribah'
p1607
I5
sS'One'
p1608
I46
sS'counted'
p1609
I11
sS'holds'
p1610
I6
sS'thigh'
p1611
I14
sS'Bethnimrah'
p1612
I2
sS'belongeth'
p1613
I9
sS'warred'
p1614
I8
sS'naves'
p1615
I1
sS'perfect'
p1616
I20
sS'decay'
p1617
I1
sS'lentiles'
p1618
I3
sS'Shuppim'
p1619
I3
sS'degrees'
p1620
I5
sS'communication'
p1621
I2
sS'Milcah'
p1622
I11
sS'physicians'
p1623
I2
sS'prosper'
p1624
I13
sS'prophetess'
p1625
I3
sS'Asaph'
p1626
I19
sS'Amminadab'
p1627
I13
sS'Baara'
p1628
I1
sS'kiss'
p1629
I4
sS'coriander'
p1630
I2
sS'whither'
p1631
I50
sS'sneezed'
p1632
I1
sS'Say'
p1633
I16
sS'truth'
p1634
I19
sS'princesses'
p1635
I1
sS'beneath'
p1636
I19
sS'Gedaliah'
p1637
I7
sS'Antothite'
p1638
I2
sS'Jehieli'
p1639
I2
sS'footmen'
p1640
I11
sS'tents'
p1641
I44
sS'doing'
p1642
I10
sS'Millo'
p1643
I9
sS'Berothai'
p1644
I1
sS'thirteen'
p1645
I14
sS'mete'
p1646
I1
sS'tenth'
p1647
I57
sS'wander'
p1648
I4
sS'witness'
p1649
I36
sS'encamping'
p1650
I1
sS'sardius'
p1651
I2
sS'matrix'
p1652
I5
sS"'"
p1653
I113
sS'chode'
p1654
I2
sS'Madmannah'
p1655
I2
sS'bunches'
p1656
I2
sS'Rithmah'
p1657
I2
sS'Pison'
p1658
I1
sS'Hadadezer'
p1659
I9
sS'buds'
p1660
I1
sS'shut'
p1661
I41
sS'perish'
p1662
I22
sS'walk'
p1663
I54
sS'surely'
p1664
I117
sS'tempt'
p1665
I3
sS'thrust'
p1666
I24
sS'Dophkah'
p1667
I2
sS'LORD)'
p1668
I1
sS'minstrel'
p1669
I2
sS'Joshaphat'
p1670
I1
sS'prepare'
p1671
I14
sS'could'
p1672
I57
sS'put'
p1673
I498
sS'Birzavith'
p1674
I1
sS'length'
p1675
I36
sS'Jesui'
p1676
I1
sS'Jahzeel'
p1677
I2
sS'curseth'
p1678
I6
sS'spilt'
p1679
I1
sS'preparest'
p1680
I1
sS'feasts'
p1681
I9
sS'takest'
p1682
I4
sS'affliction'
p1683
I14
sS'owner'
p1684
I11
sS'Kitron'
p1685
I1
sS'gerahs'
p1686
I4
sS'Shihor'
p1687
I1
sS'Iram'
p1688
I2
sS'traveller'
p1689
I1
sS'stealth'
p1690
I1
sS'Irad'
p1691
I2
sS'behaved'
p1692
I4
sS'Shihon'
p1693
I1
sS'lot'
p1694
I53
sS'unoccupied'
p1695
I1
sS'Harim'
p1696
I1
sS'Hilkiah'
p1697
I16
sS'haven'
p1698
I2
sS'steel'
p1699
I1
sS'buttocks'
p1700
I2
sS'warfare'
p1701
I1
sS'quietness'
p1702
I2
sS'psalm'
p1703
I1
sS'agate'
p1704
I2
sS'repented'
p1705
I8
sS'Wickedness'
p1706
I1
sS'false'
p1707
I7
sS'beggar'
p1708
I1
sS'abomination'
p1709
I36
sS'gently'
p1710
I1
sS'Baalhermon'
p1711
I2
sS'Balak'
p1712
I42
sS'Balah'
p1713
I1
sS'fourteenth'
p1714
I12
sS'Enhakkore'
p1715
I1
sS'viewed'
p1716
I1
sS'overthrew'
p1717
I4
sS'dishes'
p1718
I3
sS'therewith'
p1719
I20
sS'mills'
p1720
I1
sS'Hiddekel'
p1721
I1
sS'lily'
p1722
I2
sS'Bimhal'
p1723
I1
sS'Ibhar'
p1724
I3
sS'device'
p1725
I1
sS'Gaash'
p1726
I4
sS'Jehoiarib'
p1727
I2
sS'bred'
p1728
I1
sS'locust'
p1729
I7
sS'thanksgiving'
p1730
I5
sS'Izeharites'
p1731
I1
sS'face'
p1732
I166
sS'Rakkath'
p1733
I1
sS'wounded'
p1734
I9
sS'Jehu'
p1735
I52
sS'Mareshah'
p1736
I3
sS'bring'
p1737
I303
sS'Shuthelah'
p1738
I4
sS'rough'
p1739
I1
sS'brink'
p1740
I5
sS'Shimronmeron'
p1741
I1
sS'promote'
p1742
I3
sS'Shammua'
p1743
I2
sS'Enosh'
p1744
I1
sS'jaw'
p1745
I2
sS'Gerizim'
p1746
I4
sS'should'
p1747
I162
sS'planted'
p1748
I7
sS'seemeth'
p1749
I13
sS'riding'
p1750
I2
sS'Strong'
p1751
I1
sS'afflictest'
p1752
I1
sS'hope'
p1753
I1
sS'meant'
p1754
I1
sS'move'
p1755
I8
sS'handle'
p1756
I3
sS'bonds'
p1757
I3
sS'Whether'
p1758
I4
sS'familiar'
p1759
I12
sS'Keep'
p1760
I8
sS'wring'
p1761
I2
sS'Because'
p1762
I61
sS'Specially'
p1763
I1
sS'victuals'
p1764
I11
sS'inheriteth'
p1765
I1
sS'begettest'
p1766
I1
sS'hole'
p1767
I7
sS'stuff'
p1768
I9
sS'compoundeth'
p1769
I1
sS'taxed'
p1770
I1
sS'barest'
p1771
I1
sS'Gathrimmon'
p1772
I4
sS'Binea'
p1773
I2
sS'withstand'
p1774
I1
sS'frame'
p1775
I1
sS'Shilshah'
p1776
I1
sS'Achish'
p1777
I21
sS'Tikvah'
p1778
I1
sS'Massah'
p1779
I4
sS'dungeon'
p1780
I3
sS'Tahanites'
p1781
I1
sS'ends'
p1782
I20
sS'Asaiah'
p1783
I5
sS'Jehonathan'
p1784
I1
sS'Zeeb'
p1785
I5
sS'Dinah'
p1786
I8
sS'revived'
p1787
I4
sS'Haggi'
p1788
I2
sS'Zalmonah'
p1789
I2
sS'builders'
p1790
I4
sS'invited'
p1791
I2
sS'Sheresh'
p1792
I1
sS'Ethiopian'
p1793
I2
sS'rams'
p1794
I53
sS'chosen'
p1795
I44
sS'streams'
p1796
I2
sS'Hew'
p1797
I2
sS'Her'
p1798
I2
sS'Gaddi'
p1799
I1
sS'Accho'
p1800
I1
sS'Uthai'
p1801
I1
sS'distil'
p1802
I1
sS'javelin'
p1803
I7
sS'accursed'
p1804
I15
sS'debt'
p1805
I2
sS'wormwood'
p1806
I1
sS'Get'
p1807
I20
sS'poured'
p1808
I26
sS'hottest'
p1809
I1
sS'waste'
p1810
I7
sS'Anaharath'
p1811
I1
sS'Kirjath'
p1812
I1
sS'neighbour'
p1813
I56
sS'Whence'
p1814
I5
sS'Asahel'
p1815
I15
sS'ravens'
p1816
I2
sS'expounded'
p1817
I1
sS'wearied'
p1818
I1
sS'garrisons'
p1819
I5
sS'coals'
p1820
I4
sS'Number'
p1821
I3
sS'Bethlehem'
p1822
I26
sS'pictures'
p1823
I1
sS'Naboth'
p1824
I22
sS'pits'
p1825
I1
sS'Mephaath'
p1826
I3
sS'Jeshaiah'
p1827
I3
sS'ripe'
p1828
I3
sS'nourisher'
p1829
I1
sS'lust'
p1830
I1
sS'Kirharaseth'
p1831
I1
sS'demanded'
p1832
I2
sS'adultery'
p1833
I4
sS'tenor'
p1834
I2
sS'greater'
p1835
I22
sS'ransom'
p1836
I2
sS'Birsha'
p1837
I1
sS'sacrificedst'
p1838
I1
sS'Belah'
p1839
I1
sS'valour'
p1840
I27
sS'sin--'
p1841
I1
sS'Appoint'
p1842
I2
sS'Syriamaachah'
p1843
I1
sS'balm'
p1844
I2
sS'Phaltiel'
p1845
I1
sS'ringstraked'
p1846
I7
sS'Mahalah'
p1847
I1
sS'drink'
p1848
I151
sS'upon'
p1849
I1173
sS'oliveyards'
p1850
I3
sS'Merab'
p1851
I3
sS'Adithaim'
p1852
I1
sS'dust'
p1853
I30
sS'colts'
p1854
I3
sS'Carmel'
p1855
I15
sS'off'
p1856
I186
sS'endureth'
p1857
I3
sS'colour'
p1858
I3
sS'harts'
p1859
I1
sS'hearkened'
p1860
I44
sS'oft'
p1861
I1
sS'drawing'
p1862
I1
sS'Discern'
p1863
I1
sS'lest'
p1864
I80
sS'less'
p1865
I9
sS'swords'
p1866
I2
sS'Shamma'
p1867
I1
sS'rooms'
p1868
I3
sS'Tyre'
p1869
I13
sS'Zebulonite'
p1870
I2
sS'afflicted'
p1871
I9
sS'web'
p1872
I2
sS'Bethtappuah'
p1873
I1
sS'wen'
p1874
I1
sS'Shophan'
p1875
I1
sS'lattice'
p1876
I2
sS'Huppah'
p1877
I1
sS'increased'
p1878
I11
sS'magnify'
p1879
I1
sS'Gibbethon'
p1880
I6
sS'Baalmeon'
p1881
I2
sS'cedar'
p1882
I34
sS'goings'
p1883
I13
sS'earthen'
p1884
I6
sS'(of'
p1885
I1
sS'Eshtaol'
p1886
I7
sS'Eliadah'
p1887
I1
sS'Gamaliel'
p1888
I5
sS'become'
p1889
I32
sS'Jachinites'
p1890
I1
sS'Phuvah'
p1891
I1
sS'thief'
p1892
I4
sS'almonds'
p1893
I8
sS'Jeribai'
p1894
I1
sS'Hothir'
p1895
I2
sS'pillows'
p1896
I2
sS'Minnith'
p1897
I1
sS'setteth'
p1898
I5
sS'shone'
p1899
I4
sS'doer'
p1900
I2
sS'sustain'
p1901
I1
sS'copulation'
p1902
I3
sS'forgiven'
p1903
I15
sS'Bethemek'
p1904
I1
sS'blowing'
p1905
I4
sS'Eden'
p1906
I7
sS'Baale'
p1907
I1
sS'recompensed'
p1908
I3
sS'Zereda'
p1909
I1
sS'posterity'
p1910
I5
sS'pursueth'
p1911
I3
sS'adversary'
p1912
I8
sS'Azariah'
p1913
I22
sS'sister'
p1914
I70
sS'Amariah'
p1915
I7
sS'slayer'
p1916
I18
sS'seeds'
p1917
I1
sS'Adaiah'
p1918
I4
sS'Eldaah'
p1919
I2
sS'repayeth'
p1920
I1
sS'letters'
p1921
I6
sS'Mamre'
p1922
I10
sS'getting'
p1923
I1
sS'Ephod'
p1924
I1
sS'Jether'
p1925
I8
sS'Philistines'
p1926
I229
sS'Gentiles'
p1927
I4
sS'justifying'
p1928
I1
sS'spots'
p1929
I3
sS'watchman'
p1930
I8
sS'Well'
p1931
I3
sS'Ahilud'
p1932
I5
sS'grate'
p1933
I6
sS'proveth'
p1934
I1
sS'count'
p1935
I6
sS'proverbs'
p1936
I2
sS'Chushanrishathaim'
p1937
I4
sS'places'
p1938
I72
sS'greaves'
p1939
I1
sS'smooth'
p1940
I3
sS'cistern'
p1941
I1
sS'flieth'
p1942
I3
sS'Hebron'
p1943
I72
sS'placed'
p1944
I8
sS'Horite'
p1945
I1
sS'fatlings'
p1946
I2
sS'Jesse'
p1947
I37
sS'bearing'
p1948
I13
sS'rightly'
p1949
I1
sS'Ziza'
p1950
I1
sS'Galeed'
p1951
I2
sS'faintness'
p1952
I1
sS'inn'
p1953
I3
sS'vines'
p1954
I2
sS'nursed'
p1955
I1
sS'renowned'
p1956
I1
sS'didst'
p1957
I43
sS'Manahath'
p1958
I3
sS'deadly'
p1959
I1
sS'Else'
p1960
I3
sS'saviour'
p1961
I2
sS'Remaliah'
p1962
I7
sS'Understand'
p1963
I2
sS'behold'
p1964
I317
sS'rebelled'
p1965
I13
sS'worker'
p1966
I1
sS'oppression'
p1967
I3
sS'Harod'
p1968
I1
sS'chance'
p1969
I3
sS'Praise'
p1970
I1
sS'Chezib'
p1971
I1
sS'ghost'
p1972
I4
sS'Jehohanan'
p1973
I1
sS'lasted'
p1974
I1
sS'rule'
p1975
I13
sS'searched'
p1976
I9
sS'gardens'
p1977
I1
sS'Nephish'
p1978
I1
sS'Lodge'
p1979
I2
sS'integrity'
p1980
I3
sS'defraud'
p1981
I1
sS'Reaiah'
p1982
I1
sS'venom'
p1983
I1
sS'neighbours'
p1984
I3
sS'Micaiah'
p1985
I9
sS'messenger'
p1986
I16
sS'sped'
p1987
I1
sS'worth'
p1988
I6
sS'lack'
p1989
I4
sS'compassion'
p1990
I7
sS'merchantmen'
p1991
I2
sS'Adlai'
p1992
I1
sS'disobedient'
p1993
I1
sS'wagons'
p1994
I8
sS'month'
p1995
I124
sS'knowest'
p1996
I30
sS'Athaliah'
p1997
I8
sS'Jehozadak'
p1998
I2
sS'Zebah'
p1999
I11
sS'Imrah'
p2000
I1
sS'triumph'
p2001
I1
sS'chew'
p2002
I3
sS'removeth'
p2003
I1
sS'Shammuah'
p2004
I1
sS'sodomites'
p2005
I4
sS'Zabud'
p2006
I1
sS'occasioned'
p2007
I1
sS'sabbath'
p2008
I43
sS'horn'
p2009
I9
sS'blaspheme'
p2010
I3
sS'Unleavened'
p2011
I1
sS'Shelesh'
p2012
I1
sS'established'
p2013
I24
sS'lizard'
p2014
I1
sS'Sallu'
p2015
I1
sS'above'
p2016
I86
sS'Giddalti'
p2017
I2
sS'buildedst'
p2018
I1
sS'told'
p2019
I178
sS'Sochoh'
p2020
I1
sS'dreadful'
p2021
I1
sS'kindred'
p2022
I15
sS'axletrees'
p2023
I2
sS'protection'
p2024
I1
sS'Mahanaim'
p2025
I13
sS'Becher'
p2026
I5
sS'Shed'
p2027
I1
sS'daughter'
p2028
I190
sS'Shen'
p2029
I1
sS'items'
p2030
I1
sS'Shem'
p2031
I17
sS'Jephthah'
p2032
I29
sS'foolishness'
p2033
I1
sS'Shew'
p2034
I2
sS'Zephon'
p2035
I1
sS'smoke'
p2036
I11
sS'Wheresoever'
p2037
I1
sS'glittering'
p2038
I1
sS'secure'
p2039
I4
sS'breatheth'
p2040
I1
sS'soever'
p2041
I7
sS'Satan'
p2042
I1
sS'Riblah'
p2043
I5
sS'plow'
p2044
I2
sS'Star'
p2045
I1
sS'bundles'
p2046
I1
sS'Ahihud'
p2047
I2
sS'afterward'
p2048
I31
sS'mightiest'
p2049
I1
sS'Megiddo'
p2050
I10
sS'Elkanah'
p2051
I20
sS'separated'
p2052
I13
sS'Maasiai'
p2053
I1
sS'Elidad'
p2054
I1
sS'ascribe'
p2055
I1
sS'reign'
p2056
I82
sS'encamped'
p2057
I32
sS'withholden'
p2058
I1
sS'Pharpar'
p2059
I1
sS'continual'
p2060
I20
sS'word'
p2061
I164
sS'Elika'
p2062
I1
sS'divorced'
p2063
I3
sS'Ashdothites'
p2064
I1
sS'meeteth'
p2065
I3
sS'work'
p2066
I176
sS'apparelled'
p2067
I1
sS'worm'
p2068
I1
sS'ere'
p2069
I6
sS'groves'
p2070
I10
sS'challengeth'
p2071
I1
sS'crookbackt'
p2072
I1
sS'Hagar'
p2073
I12
sS'overspread'
p2074
I1
sS'quiver'
p2075
I1
sS'serpent'
p2076
I15
sS'Abi'
p2077
I1
sS'spicery'
p2078
I1
sS'taskmasters'
p2079
I6
sS'perverteth'
p2080
I2
sS'Perezuzza'
p2081
I1
sS'inhabitants'
p2082
I83
sS'Pharzites'
p2083
I1
sS'nuts'
p2084
I1
sS'agone'
p2085
I1
sS'Shicron'
p2086
I1
sS'Pekah'
p2087
I9
sS'stonesquarers'
p2088
I1
sS'fever'
p2089
I1
sS'Wilt'
p2090
I5
sS'ladder'
p2091
I1
sS'after'
p2092
I580
sS'Alian'
p2093
I1
sS'Sirion'
p2094
I1
sS'customs'
p2095
I1
sS'Will'
p2096
I4
sS'lay'
p2097
I100
sS'Abdiel'
p2098
I1
sS'law'
p2099
I144
sS'lap'
p2100
I1
sS'Cherith'
p2101
I2
sS'Rizpah'
p2102
I4
sS'liveth'
p2103
I51
sS'greet'
p2104
I1
sS'Kartan'
p2105
I1
sS'Midianite'
p2106
I1
sS'green'
p2107
I13
sS'order'
p2108
I26
sS'persude'
p2109
I1
sS'Japhlet'
p2110
I3
sS'Eye'
p2111
I1
sS'office'
p2112
I31
sS'devote'
p2113
I1
sS'consent'
p2114
I7
sS'Intreat'
p2115
I4
sS'satisfied'
p2116
I4
sS'ancients'
p2117
I1
sS'Hazo'
p2118
I1
sS'nets'
p2119
I1
sS'defrauded'
p2120
I2
sS'sheaf'
p2121
I7
sS'Zemarite'
p2122
I2
sS'befallen'
p2123
I5
sS'Judge'
p2124
I2
sS'Oshea'
p2125
I2
sS'shear'
p2126
I4
sS'then'
p2127
I380
sS'them'
p2128
I2270
sS'talkest'
p2129
I2
sS'(For'
p2130
I10
sS'thee'
p2131
I1708
sS'safe'
p2132
I3
sS'break'
p2133
I34
sS'band'
p2134
I6
sS'Ahimoth'
p2135
I1
sS'Omar'
p2136
I3
sS'they'
p2137
I2301
sS'bank'
p2138
I8
sS'bread'
p2139
I176
sS'bolted'
p2140
I1
sS'Jashobeam'
p2141
I3
sS'rocks'
p2142
I4
sS'Atarah'
p2143
I1
sS'Baalhazor'
p2144
I1
sS'lifted'
p2145
I54
sS'overfloweth'
p2146
I1
sS'Naaman'
p2147
I16
sS'Jabez'
p2148
I4
sS'Bethbirei'
p2149
I1
sS'gathereth'
p2150
I1
sS'findest'
p2151
I1
sS'flock'
p2152
I33
sS'draweth'
p2153
I2
sS'slew'
p2154
I140
sS'Shomer'
p2155
I2
sS'network'
p2156
I5
sS'forts'
p2157
I1
sS'Pelaiah'
p2158
I1
sS'Haziel'
p2159
I1
sS'forty'
p2160
I94
sS'vessels'
p2161
I79
sS'reapest'
p2162
I1
sS'strangers'
p2163
I21
sS'fellowship'
p2164
I1
sS'Aroerite'
p2165
I1
sS'amethyst'
p2166
I2
sS'engrave'
p2167
I1
sS'forth'
p2168
I286
sS'Abiram'
p2169
I10
sS'Ahab'
p2170
I77
sS'mourning'
p2171
I11
sS'enlightened'
p2172
I2
sS'Ahaz'
p2173
I24
sS'created'
p2174
I12
sS'renew'
p2175
I1
sS'weepeth'
p2176
I2
sS'shittim'
p2177
I27
sS'render'
p2178
I5
sS'chased'
p2179
I7
sS'jeoparded'
p2180
I1
sS'another'
p2181
I124
sS'thick'
p2182
I15
sS'Bachrites'
p2183
I1
sS'dogs'
p2184
I10
sS'rejected'
p2185
I10
sS'Baana'
p2186
I1
sS'scorpions'
p2187
I3
sS'wasted'
p2188
I5
sS'tithe'
p2189
I7
sS'mercy'
p2190
I55
sS'Set'
p2191
I8
sS'guile'
p2192
I1
sS'glorified'
p2193
I1
sS'Nahor'
p2194
I17
sS'seated'
p2195
I1
sS'Adnah'
p2196
I1
sS'See'
p2197
I23
sS'guilt'
p2198
I2
sS'iron'
p2199
I37
sS'algum'
p2200
I1
sS'threshingplace'
p2201
I1
sS'communing'
p2202
I2
sS'Zaanannim'
p2203
I1
sS'failing'
p2204
I1
sS'enchanter'
p2205
I1
sS'Remeth'
p2206
I1
sS'manner'
p2207
I103
sS'stalls'
p2208
I1
sS'Zaccur'
p2209
I4
sS'forced'
p2210
I6
sS'strength'
p2211
I41
sS'gier'
p2212
I2
sS'laden'
p2213
I3
sS'latter'
p2214
I12
sS'laded'
p2215
I2
sS'Shephuphan'
p2216
I1
sS'overtook'
p2217
I7
sS'pilgrimage'
p2218
I3
sS'Melchishua'
p2219
I2
sS'maiden'
p2220
I2
sS'troughs'
p2221
I2
sS'Jebus'
p2222
I4
sS'Tema'
p2223
I2
sS'proverb'
p2224
I4
sS'Went'
p2225
I1
sS'grave'
p2226
I21
sS'Hezronites'
p2227
I2
sS'Twelve'
p2228
I1
sS'nostrils'
p2229
I6
sS'Javan'
p2230
I4
sS'desiredst'
p2231
I1
sS'chargest'
p2232
I1
sS'accounted'
p2233
I3
sS'aunt'
p2234
I1
sS'Haroeh'
p2235
I1
sS'oppress'
p2236
I8
sS'fitted'
p2237
I1
sS'Aroer'
p2238
I14
sS'wrung'
p2239
I2
sS'thickness'
p2240
I1
sS'Jabal'
p2241
I1
sS'Shobal'
p2242
I9
sS'Shobab'
p2243
I4
sS'Jasiel'
p2244
I1
sS'Asarelah'
p2245
I1
sS'pursuing'
p2246
I7
sS'Benejaakan'
p2247
I2
sS'do'
p2248
I511
sS'masons'
p2249
I5
sS'sojourneth'
p2250
I12
sS'yielded'
p2251
I2
sS'gored'
p2252
I2
sS'congealed'
p2253
I1
sS'prune'
p2254
I2
sS'chastened'
p2255
I1
sS'covering'
p2256
I32
sS'hindermost'
p2257
I1
sS'Eshcol'
p2258
I6
sS'Perez'
p2259
I1
sS'steal'
p2260
I7
sS'Maonites'
p2261
I1
sS'observer'
p2262
I1
sS'triumphed'
p2263
I2
sS'winepress'
p2264
I6
sS'Hittites'
p2265
I19
sS'gladness'
p2266
I5
sS'observed'
p2267
I7
sS'bolled'
p2268
I1
sS'cattle'
p2269
I119
sS'Jabeshgilead'
p2270
I12
sS'away'
p2271
I275
sS'bier'
p2272
I1
sS'chiding'
p2273
I1
sS'drawn'
p2274
I15
sS'caves'
p2275
I2
sS'shields'
p2276
I6
sS'accord'
p2277
I2
sS'Leviticus'
p2278
I1
sS'handful'
p2279
I6
sS'travellers'
p2280
I1
sS'received'
p2281
I21
sS'Hazarmaveth'
p2282
I2
sS'Abia'
p2283
I1
sS'Elizur'
p2284
I5
sS'cow'
p2285
I2
sS'ill'
p2286
I8
sS'Bring'
p2287
I32
sS'Janohah'
p2288
I2
sS'searchings'
p2289
I1
sS'spear'
p2290
I36
sS'Shout'
p2291
I1
sS'beheaded'
p2292
I2
sS'Jesimiel'
p2293
I1
sS'speak'
p2294
I108
sS'Senir'
p2295
I1
sS'Hazor'
p2296
I15
sS'Hashem'
p2297
I1
sS'Beera'
p2298
I1
sS'Beeri'
p2299
I1
sS'Emims'
p2300
I2
sS'obedient'
p2301
I5
sS'thrice'
p2302
I3
sS'Hareph'
p2303
I1
sS'families'
p2304
I156
sS'beloved'
p2305
I4
sS'concerning'
p2306
I68
sS'Night'
p2307
I1
sS'Ammonitess'
p2308
I2
sS'gracious'
p2309
I8
sS'serveth'
p2310
I1
sS'thenceforth'
p2311
I1
sS'air'
p2312
I16
sS'voice'
p2313
I153
sS'Ephraimites'
p2314
I5
sS'mealtime'
p2315
I1
sS'Kittim'
p2316
I2
sS'stink'
p2317
I3
sS'Ahiram'
p2318
I1
sS'Almodad'
p2319
I2
sS'brake'
p2320
I26
sS'Pai'
p2321
I1
sS'exile'
p2322
I1
sS'Pithom'
p2323
I1
sS'confirmed'
p2324
I4
sS'perform'
p2325
I15
sS'Bethanath'
p2326
I3
sS'bedchamber'
p2327
I4
sS'descend'
p2328
I2
sS'plates'
p2329
I5
sS'wheel'
p2330
I2
sS'Beneberak'
p2331
I1
sS'Tebaliah'
p2332
I1
sS'lancets'
p2333
I1
sS'juniper'
p2334
I2
sS'springing'
p2335
I2
sS'swell'
p2336
I4
sS'hang'
p2337
I10
sS'endued'
p2338
I3
sS'evil'
p2339
I161
sS'hand'
p2340
I700
sS'descry'
p2341
I1
sS'traffick'
p2342
I2
sS'reproacheth'
p2343
I1
sS'kept'
p2344
I60
sS'whereby'
p2345
I8
sS'thy'
p2346
I1884
sS'peacocks'
p2347
I1
sS'humble'
p2348
I4
sS'Sidon'
p2349
I2
sS'Jahzerah'
p2350
I1
sS'Jaalam'
p2351
I4
sS'humbly'
p2352
I1
sS'the'
p2353
I27350
sS'camps'
p2354
I6
sS'musical'
p2355
I1
sS'Doubtless'
p2356
I1
sS'gods'
p2357
I141
sS'Chittim'
p2358
I1
sS'Zeror'
p2359
I1
sS'Shaharaim'
p2360
I1
sS'hallow'
p2361
I10
sS'Jotbathah'
p2362
I2
sS'hills'
p2363
I16
sS'Mashal'
p2364
I1
sS'Bithiah'
p2365
I1
sS'Masrekah'
p2366
I2
sS'exalt'
p2367
I2
sS'shout'
p2368
I11
sS'spread'
p2369
I59
sS'board'
p2370
I17
sS'sitteth'
p2371
I8
sS'righteous'
p2372
I25
sS'expelled'
p2373
I3
sS'Aziel'
p2374
I1
sS'mocked'
p2375
I7
sS'Tiras'
p2376
I2
sS'Resen'
p2377
I1
sS'Abijah'
p2378
I2
sS'Certain'
p2379
I1
sS'Jekuthiel'
p2380
I1
sS'night'
p2381
I121
sS'odours'
p2382
I1
sS'born'
p2383
I79
sS'dedicating'
p2384
I2
sS'Atarothaddar'
p2385
I1
sS'bore'
p2386
I2
sS'Shemidaites'
p2387
I1
sS'purple'
p2388
I31
sS'valiantest'
p2389
I1
sS'stedfastly'
p2390
I2
sS'Let'
p2391
I140
sS'denied'
p2392
I2
sS'beating'
p2393
I1
sS'floweth'
p2394
I12
sS'Neah'
p2395
I1
sS'cleanness'
p2396
I2
sS'Methuselah'
p2397
I6
sS'provocations'
p2398
I1
sS'post'
p2399
I3
sS'foreskin'
p2400
I8
sS'theirs'
p2401
I8
sS'months'
p2402
I27
sS'helpeth'
p2403
I1
sS'bearest'
p2404
I1
sS'meaneth'
p2405
I4
sS'Zebadiah'
p2406
I5
sS'Cut'
p2407
I1
sS'mantle'
p2408
I8
sS'Make'
p2409
I15
sS'bound'
p2410
I35
sS'balances'
p2411
I1
sS'candlesticks'
p2412
I6
sS'Gederathite'
p2413
I1
sS'strangely'
p2414
I1
sS'fight'
p2415
I53
sS'Shual'
p2416
I2
sS'Shuah'
p2417
I5
sS'way'
p2418
I223
sS'wax'
p2419
I7
sS'was'
p2420
I2020
sS'war'
p2421
I134
sS'lowest'
p2422
I4
sS'Adino'
p2423
I1
sS'snowy'
p2424
I1
sS'Barhumite'
p2425
I1
sS'Adina'
p2426
I1
sS'criest'
p2427
I2
sS'astonished'
p2428
I2
sS'true'
p2429
I12
sS'absent'
p2430
I1
sS'dowry'
p2431
I4
sS'smitest'
p2432
I1
sS'Dishon'
p2433
I7
sS'Benjamite'
p2434
I7
sS'prayed'
p2435
I15
sS'inquisition'
p2436
I1
sS'stronger'
p2437
I12
sS'(from'
p2438
I1
sS'howling'
p2439
I1
sS'promised'
p2440
I29
sS'ephah'
p2441
I10
sS'request'
p2442
I3
sS'psalteries'
p2443
I10
sS'mole'
p2444
I1
sS'Kadeshbarnea'
p2445
I10
sS'weaned'
p2446
I7
sS'Rephah'
p2447
I1
sS'dying'
p2448
I1
sS'lacketh'
p2449
I2
sS'desireth'
p2450
I6
sS'falsely'
p2451
I6
sS'mire'
p2452
I1
sS'Izharites'
p2453
I3
sS'brothers'
p2454
I1
sS'guiltless'
p2455
I9
sS'mightily'
p2456
I4
sS'Korah'
p2457
I26
sS'Arumah'
p2458
I1
sS'iniquities'
p2459
I4
sS'bestowed'
p2460
I4
sS'paces'
p2461
I1
sS'together'
p2462
I152
sS'beds'
p2463
I1
sS'Jaaziah'
p2464
I2
sS'Zeruiah'
p2465
I26
sS'songs'
p2466
I3
sS'Rezia'
p2467
I1
sS'dance'
p2468
I1
sS'Rezin'
p2469
I4
sS'horseback'
p2470
I2
sS'(thou'
p2471
I1
sS'battle'
p2472
I108
sS'polluted'
p2473
I2
sS'Ibzan'
p2474
I2
sS'Hemath'
p2475
I2
sS'devoted'
p2476
I6
sS'certainly'
p2477
I16
sS'grape'
p2478
I2
sS'Jearim'
p2479
I1
sS'thighs'
p2480
I1
sS'watchmen'
p2481
I3
sS'seeketh'
p2482
I9
sS'terror'
p2483
I5
sS'Gaham'
p2484
I1
sS'Casluhim'
p2485
I2
sS'Eliphalet'
p2486
I2
sS'brown'
p2487
I4
sS'Oren'
p2488
I1
sS'Canst'
p2489
I1
sS'Oreb'
p2490
I5
sS'Bethhogla'
p2491
I1
sS'Talmon'
p2492
I1
sS'trouble'
p2493
I5
sS'blast'
p2494
I4
sS'feeble'
p2495
I4
sS'perceived'
p2496
I10
sS'Salathiel'
p2497
I1
sS'divorcement'
p2498
I2
sS'Just'
p2499
I1
sS'presented'
p2500
I13
sS'Ahumai'
p2501
I1
sS'woven'
p2502
I3
sS'upper'
p2503
I12
sS'plummet'
p2504
I1
sS'temples'
p2505
I3
sS'discover'
p2506
I2
sS'Ahiezer'
p2507
I6
sS'curse'
p2508
I42
sS'appear'
p2509
I18
sS'scaffold'
p2510
I1
sS'Bera'
p2511
I1
sS'Jealous'
p2512
I1
sS'principal'
p2513
I7
sS'Beri'
p2514
I1
sS'cursings'
p2515
I1
sS'Jericho'
p2516
I51
sS'overseers'
p2517
I1
sS'Pul'
p2518
I3
sS'sojourners'
p2519
I3
sS'teacher'
p2520
I1
sS'change'
p2521
I9
sS'Saul'
p2522
I393
sS'sending'
p2523
I1
sS'Deal'
p2524
I1
sS'Moladah'
p2525
I3
sS'Hanochites'
p2526
I1
sS'pillow'
p2527
I2
sS'wayfaring'
p2528
I2
sS'retired'
p2529
I2
sS'marked'
p2530
I1
sS'bullock'
p2531
I91
sS'straitly'
p2532
I4
sS'sincerely'
p2533
I2
sS'Isaac'
p2534
I107
sS'whereunto'
p2535
I3
sS'prove'
p2536
I10
sS'sheepcotes'
p2537
I1
sS'live'
p2538
I61
sS'selfsame'
p2539
I10
sS'angels'
p2540
I4
sS'Shemida'
p2541
I2
sS'Ammonite'
p2542
I5
sS'entrance'
p2543
I6
sS'Zerubbabel'
p2544
I2
sS'(That'
p2545
I1
sS'wretchedness'
p2546
I1
sS'naughtiness'
p2547
I1
sS'Kenite'
p2548
I6
sS'chastise'
p2549
I4
sS'Atroth'
p2550
I1
sS'can'
p2551
I36
sS'cab'
p2552
I1
sS'dissembled'
p2553
I1
sS'Ishbibenob'
p2554
I1
sS'spy'
p2555
I11
sS'dedicated'
p2556
I17
sS'saith'
p2557
I98
sS'arise'
p2558
I27
sS'heard'
p2559
I191
sS'sheepcote'
p2560
I2
sS'Jehonadab'
p2561
I3
sS'restitution'
p2562
I4
sS'means'
p2563
I8
sS'Onyx'
p2564
I1
sS',)'
p2565
I16
sS'write'
p2566
I13
sS'Barak'
p2567
I13
sS'Sisamai'
p2568
I2
sS'Unni'
p2569
I2
sS'armies'
p2570
I31
sS'sacrifice'
p2571
I138
sS'hideth'
p2572
I1
sS'Arpad'
p2573
I2
sS'Gemalli'
p2574
I1
sS'lifting'
p2575
I2
sS'Ashkelon'
p2576
I1
sS'remember'
p2577
I29
sS'Thebez'
p2578
I3
sS'worthily'
p2579
I1
sS'trumpets'
p2580
I35
sS'rather'
p2581
I3
sS'gavest'
p2582
I4
sS'Zanoah'
p2583
I3
sS'Amzi'
p2584
I1
sS'serving'
p2585
I2
sS'pipe'
p2586
I1
sS'indeed'
p2587
I24
sS'colt'
p2588
I1
sS'ribband'
p2589
I1
sS'ended'
p2590
I8
sS'Kattath'
p2591
I1
sS'Strength'
p2592
I1
sS'tablets'
p2593
I2
sS'Uriel'
p2594
I3
sS'cold'
p2595
I1
sS'still'
p2596
I37
sS'birds'
p2597
I9
sS'freckled'
p2598
I1
sS'Hinder'
p2599
I1
sS'acknowledge'
p2600
I2
sS'hewed'
p2601
I10
sS'window'
p2602
I13
sS'atonement'
p2603
I78
sS'Dalaiah'
p2604
I1
sS'halt'
p2605
I1
sS'Ithrite'
p2606
I4
sS'Pedahel'
p2607
I1
sS'flint'
p2608
I1
sS'half'
p2609
I100
sS'not'
p2610
I2003
sS'now'
p2611
I280
sS'provision'
p2612
I8
sS'nor'
p2613
I265
sS'wont'
p2614
I4
sS'servant'
p2615
I285
sS'drop'
p2616
I2
sS'musick'
p2617
I3
sS'Zohar'
p2618
I4
sS'vexation'
p2619
I1
sS'Elzabad'
p2620
I2
sS'Zerah'
p2621
I17
sS'Sharezer'
p2622
I1
sS'Shemuel'
p2623
I3
sS'Except'
p2624
I3
sS'Elead'
p2625
I1
sS'year'
p2626
I218
sS'eatest'
p2627
I3
sS'happen'
p2628
I1
sS'avoided'
p2629
I1
sS'accomplish'
p2630
I2
sS'opened'
p2631
I31
sS'space'
p2632
I7
sS'furthermore'
p2633
I2
sS'thirst'
p2634
I4
sS'hastily'
p2635
I5
sS'increase'
p2636
I29
sS'tingle'
p2637
I2
sS'Hakkoz'
p2638
I1
sS'ruinous'
p2639
I1
sS'Beriites'
p2640
I1
sS'Rabshakeh'
p2641
I8
sS'cart'
p2642
I11
sS'Stand'
p2643
I6
sS'Ramathmizpeh'
p2644
I1
sS'care'
p2645
I4
sS'Blind'
p2646
I1
sS'buildeth'
p2647
I1
sS'Zephath'
p2648
I1
sS'kingdoms'
p2649
I8
sS'seest'
p2650
I9
sS'fetters'
p2651
I3
sS'Gazez'
p2652
I2
sS'profess'
p2653
I1
sS'blind'
p2654
I11
sS'reignest'
p2655
I1
sS'strengthened'
p2656
I7
sS'jealousy'
p2657
I12
sS'caldron'
p2658
I1
sS'There'
p2659
I53
sS'Shophach'
p2660
I2
sS'Machpelah'
p2661
I6
sS'consecrate'
p2662
I10
sS'coulters'
p2663
I1
sS'directly'
p2664
I1
sS'invasion'
p2665
I1
sS'ring'
p2666
I3
sS'Ashbel'
p2667
I3
sS'size'
p2668
I5
sS'sheep'
p2669
I97
sS'silent'
p2670
I1
sS'Jezebel'
p2671
I22
sS'Separate'
p2672
I1
sS'caught'
p2673
I16
sS'breed'
p2674
I2
sS'households'
p2675
I7
sS'checker'
p2676
I1
sS'friend'
p2677
I11
sS'Zidon'
p2678
I9
sS'similitude'
p2679
I5
sS'Bethanoth'
p2680
I1
sS'Bocheru'
p2681
I2
sS'that'
p2682
I4454
sS'Jair'
p2683
I9
sS'Mirma'
p2684
I1
sS'goodlier'
p2685
I1
sS'flowers'
p2686
I15
sS'than'
p2687
I104
sS'artificer'
p2688
I1
sS'Gershonites'
p2689
I8
sS'cymbals'
p2690
I11
sS'fruits'
p2691
I12
sS'angel'
p2692
I70
sS'remained'
p2693
I29
sS'Urijah'
p2694
I5
sS'(and'
p2695
I3
sS'Jethlah'
p2696
I1
sS'dromedaries'
p2697
I1
sS'Call'
p2698
I8
sS'Anakims'
p2699
I9
sS'succeedest'
p2700
I2
sS'anger'
p2701
I76
sS'wallowed'
p2702
I1
sS'recover'
p2703
I12
sS'Israelite'
p2704
I2
sS'Commune'
p2705
I1
sS'form'
p2706
I4
sS'Jesaiah'
p2707
I1
sS'sheepmaster'
p2708
I1
sS'begin'
p2709
I11
sS'Archi'
p2710
I1
sS'price'
p2711
I11
sS'Almondiblathaim'
p2712
I2
sS'clovenfooted'
p2713
I3
sS'Aher'
p2714
I1
sS'steads'
p2715
I1
sS'steady'
p2716
I1
sS'tooth'
p2717
I9
sS'uncircumcised'
p2718
I17
sS'pattern'
p2719
I10
sS'bondmen'
p2720
I13
sS'Caphtor'
p2721
I1
sS'Fifth'
p2722
I1
sS'erred'
p2723
I3
sS'Phut'
p2724
I1
sS'rereward'
p2725
I4
sS'fifty'
p2726
I106
sS'discovered'
p2727
I5
sS'Nebajoth'
p2728
I3
sS'Roll'
p2729
I1
sS'fifth'
p2730
I39
sS'ground'
p2731
I89
sS'Woman'
p2732
I1
sS'Jotbath'
p2733
I1
sS'separateth'
p2734
I2
sS'saints'
p2735
I3
sS'only'
p2736
I84
sS'Awake'
p2737
I1
sS'froward'
p2738
I2
sS'Kedesh'
p2739
I11
sS'truly'
p2740
I11
sS'Zoheleth'
p2741
I1
sS'cannot'
p2742
I36
sS'Rahab'
p2743
I5
sS'bracelets'
p2744
I7
sS'Raham'
p2745
I1
sS'Gederite'
p2746
I1
sS'celebrate'
p2747
I2
sS'genealogy'
p2748
I6
sS'Pardon'
p2749
I1
sS'Ichabod'
p2750
I2
sS'risest'
p2751
I2
sS'fortify'
p2752
I1
sS'breeches'
p2753
I4
sS'Jeuz'
p2754
I1
sS'Horhagidgad'
p2755
I2
sS'girdles'
p2756
I3
sS'husband'
p2757
I73
sS'Bethcar'
p2758
I1
sS'gutter'
p2759
I1
sS'famine'
p2760
I34
sS'(this'
p2761
I1
sS'namely'
p2762
I11
sS'asleep'
p2763
I2
sS'sport'
p2764
I3
sS'Medeba'
p2765
I4
sS'atonements'
p2766
I1
sS'colours'
p2767
I9
sS'3'
p2768
I24
sS'between'
p2769
I147
sS'Ummah'
p2770
I1
sS'notice'
p2771
I1
sS'Shupham'
p2772
I1
sS'pluck'
p2773
I3
sS'blame'
p2774
I2
sS'Were'
p2775
I1
sS'Harodite'
p2776
I2
sS'Thelasar'
p2777
I1
sS'cleave'
p2778
I14
sS'Give'
p2779
I36
sS'pertain'
p2780
I3
sS'Adoniram'
p2781
I2
sS'deputed'
p2782
I1
sS'Escape'
p2783
I1
sS'Ammiel'
p2784
I6
sS'wheels'
p2785
I6
sS'heron'
p2786
I2
sS'madness'
p2787
I1
sS'wreaths'
p2788
I3
sS'Aruboth'
p2789
I1
sS'Avenge'
p2790
I1
sS'moreover'
p2791
I14
sS'olives'
p2792
I1
sS'Heshbon'
p2793
I28
sS'Mattanah'
p2794
I2
sS'punished'
p2795
I3
sS'Twenty'
p2796
I2
sS'followeth'
p2797
I1
sS'troubleth'
p2798
I2
sS'wounds'
p2799
I2
sS'observers'
p2800
I1
sS'Erites'
p2801
I1
sS'Haran'
p2802
I17
sS'midwives'
p2803
I7
sS'Simeonites'
p2804
I3
sS'these'
p2805
I407
sS'letteth'
p2806
I1
sS'Naharai'
p2807
I1
sS'Ithra'
p2808
I1
sS'Beriah'
p2809
I11
sS'cherub'
p2810
I15
sS'fool'
p2811
I2
sS'embrace'
p2812
I1
sS'heels'
p2813
I1
sS'commanded'
p2814
I272
sS'slimepits'
p2815
I1
sS'fleddest'
p2816
I1
sS'selleth'
p2817
I3
sS'Temanites'
p2818
I1
sS'Hananiah'
p2819
I5
sS'Baanah'
p2820
I7
sS'groanings'
p2821
I1
sS'figures'
p2822
I1
sS'tarrieth'
p2823
I1
sS'finish'
p2824
I1
sS'Socoh'
p2825
I2
sS'foal'
p2826
I1
sS'frankincense'
p2827
I10
sS'fruit'
p2828
I52
sS'passing'
p2829
I4
sS'complained'
p2830
I1
sS'traps'
p2831
I1
sS'bondage'
p2832
I17
sS'charger'
p2833
I13
sS'Harorite'
p2834
I1
sS'Ephrathite'
p2835
I3
sS'Elizaphan'
p2836
I3
sS'poplar'
p2837
I1
sS'Beeshterah'
p2838
I1
sS'charged'
p2839
I22
sS'heaps'
p2840
I5
sS'generally'
p2841
I1
sS'armour'
p2842
I16
sS'Seneh'
p2843
I1
sS'Joelah'
p2844
I1
sS'bakemeats'
p2845
I1
sS'Giloh'
p2846
I2
sS'Uncover'
p2847
I1
sS'touch'
p2848
I19
sS'speed'
p2849
I4
sS'death'
p2850
I118
sS'Would'
p2851
I7
sS'thinking'
p2852
I2
sS'Naphtali'
p2853
I43
sS'Hushim'
p2854
I4
sS'struck'
p2855
I3
sS'lade'
p2856
I2
sS'Moabite'
p2857
I2
sS'read'
p2858
I11
sS'ruler'
p2859
I24
sS'Amasai'
p2860
I4
sS'stools'
p2861
I1
sS'early'
p2862
I41
sS'Hareth'
p2863
I1
sS'lads'
p2864
I1
sS'Adriel'
p2865
I2
sS'reap'
p2866
I9
sS'rear'
p2867
I3
sS'ruled'
p2868
I6
sS'beatest'
p2869
I1
sS'treadeth'
p2870
I1
sS'smell'
p2871
I6
sS'miracle'
p2872
I1
sS'roll'
p2873
I2
sS'Disperse'
p2874
I1
sS'fully'
p2875
I4
sS'downward'
p2876
I1
sS'Ashurites'
p2877
I1
sS'twelve'
p2878
I93
sS'falsehood'
p2879
I1
sS'Mara'
p2880
I1
sS'servile'
p2881
I12
sS'Mark'
p2882
I2
sS'Israelitish'
p2883
I3
sS'Jedidah'
p2884
I1
sS'intend'
p2885
I1
sS'Lasha'
p2886
I1
sS'perverse'
p2887
I3
sS'sling'
p2888
I5
sS'Shuphamites'
p2889
I1
sS'Michri'
p2890
I1
sS'Bethharan'
p2891
I1
sS'Rehoboam'
p2892
I22
sS'forks'
p2893
I1
sS'followedst'
p2894
I1
sS'cleansed'
p2895
I17
sS'thereunto'
p2896
I5
sS'assembly'
p2897
I23
sS'business'
p2898
I12
sS'sixth'
p2899
I22
sS'innocency'
p2900
I1
sS'Chileab'
p2901
I1
sS'Drive'
p2902
I1
sS'incline'
p2903
I2
sS'assemble'
p2904
I2
sS'throw'
p2905
I3
sS'comparison'
p2906
I2
sS'Hezion'
p2907
I1
sS'blessest'
p2908
I2
sS'Zabdiel'
p2909
I1
sS'Bochim'
p2910
I2
sS'boldly'
p2911
I1
sS'journey'
p2912
I38
sS'wolf'
p2913
I1
sS'greatly'
p2914
I30
sS'testimony'
p2915
I34
sS'barrels'
p2916
I1
sS'Abidah'
p2917
I1
sS'Abidan'
p2918
I5
sS'earring'
p2919
I3
sS'Mithcah'
p2920
I2
sS'verily'
p2921
I3
sS'your'
p2922
I738
sS'Azaz'
p2923
I1
sS'Exodus'
p2924
I1
sS'log'
p2925
I5
sS'Naamites'
p2926
I1
sS'removing'
p2927
I1
sS'Helbah'
p2928
I1
sS'drank'
p2929
I9
sS'low'
p2930
I4
sS'stars'
p2931
I12
sS'sweareth'
p2932
I1
sS'you)'
p2933
I1
sS'pitcher'
p2934
I9
sS'delayed'
p2935
I1
sS'sendest'
p2936
I4
sS'pitched'
p2937
I80
sS'hire'
p2938
I9
sS'restorer'
p2939
I1
sS'Jezerites'
p2940
I1
sS'revengers'
p2941
I1
sS'Judges'
p2942
I2
sS'oxen'
p2943
I73
sS'subdue'
p2944
I2
sS'Judah'
p2945
I299
sS'Siddim'
p2946
I3
sS'describe'
p2947
I4
sS'moved'
p2948
I13
sS'Shimrom'
p2949
I1
sS'Shimron'
p2950
I4
sS'sheath'
p2951
I3
sS':for'
p2952
I1
sS'Chun'
p2953
I1
sS'thither'
p2954
I58
sS'Lay'
p2955
I4
sS'you'
p2956
I859
sS'forcing'
p2957
I1
sS'poor'
p2958
I32
sS'Pursue'
p2959
I1
sS'desolation'
p2960
I4
sS'Madon'
p2961
I2
sS'Tiphsah'
p2962
I2
sS'Cinneroth'
p2963
I1
sS'pool'
p2964
I7
sS'building'
p2965
I11
sS'mourned'
p2966
I14
sS'Gilgal'
p2967
I33
sS'repay'
p2968
I1
sS'trumpeters'
p2969
I2
sS'mourner'
p2970
I1
sS'enlargeth'
p2971
I1
sS'Allonbachuth'
p2972
I1
sS'Togarmah'
p2973
I2
sS'ungirded'
p2974
I1
sS'Gether'
p2975
I2
sS'ceased'
p2976
I9
sS'Take'
p2977
I75
sS'Moses'
p2978
I737
sS'espied'
p2979
I1
sS'Maon'
p2980
I7
sS'<DOC>'
p2981
I13
sS'Jimnah'
p2982
I1
sS'teareth'
p2983
I1
sS'Terah'
p2984
I11
sS'fountain'
p2985
I8
sS'pledges'
p2986
I1
sS'hill'
p2987
I42
sS'very'
p2988
I112
sS'horror'
p2989
I1
sS'robes'
p2990
I3
sS'eldest'
p2991
I10
sS'Abiah'
p2992
I4
sS'me'
p2993
I1228
sS'minded'
p2994
I1
sS'Salt'
p2995
I1
sS'Salu'
p2996
I1
sS'heaven'
p2997
I137
sS'heaved'
p2998
I3
sS'Hararite'
p2999
I5
sS'Hoham'
p3000
I1
sS'smith'
p3001
I1
sS'Jaminites'
p3002
I1
sS'Mebunnai'
p3003
I1
sS'repenteth'
p3004
I2
sS'streets'
p3005
I2
sS'Semachiah'
p3006
I1
sS'idolatry'
p3007
I1
sS'Milcom'
p3008
I3
sS'Taanathshiloh'
p3009
I1
sS'darkness'
p3010
I22
sS'witnessed'
p3011
I1
sS'Japheth'
p3012
I11
sS'menservants'
p3013
I9
sS'witnesses'
p3014
I11
sS'Rezeph'
p3015
I1
sS'learned'
p3016
I1
sS'Naham'
p3017
I1
sS'loose'
p3018
I3
sS'Jaaziel'
p3019
I1
sS'bribes'
p3020
I1
sS'strong'
p3021
I70
sS'Jews'
p3022
I4
sS'unweighed'
p3023
I1
sS'Naam'
p3024
I1
sS'psalmist'
p3025
I1
sS'Joab'
p3026
I142
sS'drawers'
p3027
I3
sS'Joah'
p3028
I5
sS'laver'
p3029
I15
sS'Iphedeiah'
p3030
I1
sS'family'
p3031
I110
sS'exceedeth'
p3032
I1
sS'virgins'
p3033
I3
sS'Jeuel'
p3034
I1
sS'trained'
p3035
I1
sS'Jattir'
p3036
I4
sS'lewdness'
p3037
I1
sS'seventeenth'
p3038
I6
sS'Bethjesimoth'
p3039
I1
sS'Baladan'
p3040
I1
sS'ruleth'
p3041
I1
sS'praised'
p3042
I7
sS'taken'
p3043
I122
sS'dealest'
p3044
I1
sS'Butter'
p3045
I1
sS'sheweth'
p3046
I5
sS'passest'
p3047
I4
sS'asps'
p3048
I1
sS'Bless'
p3049
I3
sS'So'
p3050
I327
sS'weighed'
p3051
I6
sS'offended'
p3052
I3
sS'Wherefore'
p3053
I98
sS'nine'
p3054
I35
sS'Jehoshuah'
p3055
I1
sS'Abiel'
p3056
I3
sS'Mahli'
p3057
I10
sS'ledges'
p3058
I5
sS'stayed'
p3059
I21
sS'Taberah'
p3060
I2
sS'Beraiah'
p3061
I1
sS'Zibiah'
p3062
I1
sS'tried'
p3063
I2
sS'Ahaziah'
p3064
I24
sS'Syria'
p3065
I46
sS'Bethmaachah'
p3066
I2
sS'a'
p3067
I2944
sS'Eker'
p3068
I1
sS'dread'
p3069
I5
sS'banks'
p3070
I3
sS'dream'
p3071
I35
sS'understandeth'
p3072
I1
sS'Fill'
p3073
I3
sS'help'
p3074
I30
sS'Calebephratah'
p3075
I1
sS'broidered'
p3076
I1
sS'soon'
p3077
I29
sS'held'
p3078
I18
sS'committed'
p3079
I18
sS'hell'
p3080
I2
sS'bringeth'
p3081
I12
sS'Hilen'
p3082
I1
sS'Delilah'
p3083
I6
sS'labours'
p3084
I3
sS'fruitful'
p3085
I16
sS'Ashdothpisgah'
p3086
I3
sS'dieth'
p3087
I11
sS'Carmi'
p3088
I8
sS'Meshullam'
p3089
I8
sS'forbear'
p3090
I4
sS'Malchiram'
p3091
I1
sS'evening'
p3092
I27
sS'food'
p3093
I33
sS'ye'
p3094
I1105
sS'reigning'
p3095
I1
sS'foot'
p3096
I41
sS'Hamathite'
p3097
I2
sS'Ziba'
p3098
I16
sS'Eleasah'
p3099
I4
sS'Ahikam'
p3100
I3
sS'cieled'
p3101
I1
sS'occasions'
p3102
I2
sS'whithersoever'
p3103
I14
sS'Benoni'
p3104
I1
sS'bless'
p3105
I63
sS'did'
p3106
I554
sS'stopped'
p3107
I5
sS'galbanum'
p3108
I1
sS'Raguel'
p3109
I1
sS'heavy'
p3110
I14
sS'covenant'
p3111
I156
sS'Japho'
p3112
I1
sS'circumcised'
p3113
I23
sS'thirteenth'
p3114
I3
sS'Bamothbaal'
p3115
I1
sS'beyond'
p3116
I21
sS'heave'
p3117
I29
sS'miss'
p3118
I2
sS'since'
p3119
I25
sS'testify'
p3120
I5
sS'publish'
p3121
I3
sS'howsoever'
p3122
I3
sS'settle'
p3123
I1
sS'safety'
p3124
I5
sS'7'
p3125
I21
sS'Succothbenoth'
p3126
I1
sS'issue'
p3127
I30
sS'ass'
p3128
I67
sS'None'
p3129
I4
sS'bald'
p3130
I11
sS'dirt'
p3131
I1
sS'dung'
p3132
I9
sS'According'
p3133
I16
sS'houses'
p3134
I44
sS'reason'
p3135
I17
sS'base'
p3136
I10
sS'Mehetabel'
p3137
I2
sS'ask'
p3138
I18
sS'overlaid'
p3139
I32
sS'terrible'
p3140
I8
sS'telleth'
p3141
I2
sS'Respect'
p3142
I1
sS'Jahmai'
p3143
I1
sS'Aphiah'
p3144
I1
sS'Abihail'
p3145
I3
sS'elder'
p3146
I6
sS'mist'
p3147
I1
sS'visions'
p3148
I1
sS'horse'
p3149
I9
sS'Jeremiah'
p3150
I6
sS'blossom'
p3151
I1
sS'overlaying'
p3152
I2
sS'wonderful'
p3153
I3
sS'Anah'
p3154
I12
sS'hundred'
p3155
I341
sS'bowed'
p3156
I54
sS'appeareth'
p3157
I3
sS'overdrive'
p3158
I1
sS'grew'
p3159
I16
sS'kindly'
p3160
I8
sS'lament'
p3161
I1
sS'Hivites'
p3162
I15
sS'tabret'
p3163
I2
sS'recovered'
p3164
I7
sS'kindle'
p3165
I1
sS'toward'
p3166
I123
sS'Ishod'
p3167
I1
sS'threshed'
p3168
I1
sS'withered'
p3169
I1
sS'Ezel'
p3170
I1
sS'Seba'
p3171
I2
sS'God'
p3172
I1393
sS'Gog'
p3173
I1
sS'Peace'
p3174
I4
sS'Gob'
p3175
I2
sS'Baal'
p3176
I47
sS'Zered'
p3177
I3
sS'Ezer'
p3178
I7
sS'lid'
p3179
I1
sS'lie'
p3180
I57
sS'trance'
p3181
I2
sS'Kenaz'
p3182
I11
sS'Ellasar'
p3183
I2
sS'officers'
p3184
I39
sS'targets'
p3185
I1
sS'Galilee'
p3186
I5
sS'labour'
p3187
I9
sS'lip'
p3188
I1
sS'command'
p3189
I64
sS'With'
p3190
I14
sS'Spirit'
p3191
I20
sS'Kenites'
p3192
I8
sS'honeycomb'
p3193
I1
sS'Thy'
p3194
I40
sS'eater'
p3195
I1
sS'Shilonites'
p3196
I1
sS'exempted'
p3197
I1
sS'hired'
p3198
I18
sS'bridle'
p3199
I1
sS'eaten'
p3200
I60
sS'The'
p3201
I490
sS'Elnaam'
p3202
I1
sS'Called'
p3203
I8
sS'Maalehacrabbim'
p3204
I1
sS'Bezer'
p3205
I5
sS'clear'
p3206
I6
sS'archers'
p3207
I7
sS'clouted'
p3208
I1
sS'tongs'
p3209
I4
sS'clean'
p3210
I82
sS'fainthearted'
p3211
I1
sS'Bezek'
p3212
I3
sS'Jesiah'
p3213
I2
sS'Shahazimah'
p3214
I1
sS'heavens'
p3215
I14
sS'Tirhanah'
p3216
I1
sS'Jael'
p3217
I6
sS'justice'
p3218
I6
sS'flesh'
p3219
I157
sS'grayheaded'
p3220
I1
sS'saveth'
p3221
I2
sS'hardened'
p3222
I18
sS'Ornan'
p3223
I12
sS'Mahlon'
p3224
I4
sS'trees'
p3225
I71
sS'speckled'
p3226
I9
sS'famous'
p3227
I6
sS'While'
p3228
I3
sS'boils'
p3229
I1
sS'morever'
p3230
I1
sS'Aznothtabor'
p3231
I1
sS'sacrificed'
p3232
I20
sS'Matri'
p3233
I1
sS'perfume'
p3234
I2
sS'sacrifices'
p3235
I31
sS'Abialbon'
p3236
I1
sS'withs'
p3237
I3
sS'seventeen'
p3238
I6
sS'Nemuel'
p3239
I3
sS'throwing'
p3240
I1
sS'Abimelech'
p3241
I66
sS'millstone'
p3242
I3
sS'Bethrehob'
p3243
I2
sS'close'
p3244
I3
sS'Neither'
p3245
I34
sS'baldness'
p3246
I2
sS'entereth'
p3247
I4
sS'wot'
p3248
I5
sS'Lehi'
p3249
I3
sS'Lecah'
p3250
I1
sS'Zenan'
p3251
I1
sS'won'
p3252
I1
sS'Nobah'
p3253
I3
sS'honourest'
p3254
I1
sS'piss'
p3255
I1
sS'missing'
p3256
I2
sS'Tekoa'
p3257
I2
sS'poorer'
p3258
I1
sS'wreath'
p3259
I1
sS'idolatrous'
p3260
I1
sS'lifteth'
p3261
I2
sS'Telem'
p3262
I1
sS'Reubenites'
p3263
I16
sS'Naioth'
p3264
I6
sS'kneeled'
p3265
I1
sS'league'
p3266
I14
sS'garrison'
p3267
I12
sS'secrets'
p3268
I1
sS'inwards'
p3269
I20
sS'Hara'
p3270
I1
sS'Peresh'
p3271
I1
sS'detest'
p3272
I1
sS'bondman'
p3273
I5
sS'forgotten'
p3274
I4
sS'fellows'
p3275
I3
sS'Certainly'
p3276
I1
sS'hewn'
p3277
I2
sS'manners'
p3278
I2
sS'Mishraites'
p3279
I1
sS'vessel'
p3280
I17
sS'Was'
p3281
I2
sS'along'
p3282
I28
sS'Ajah'
p3283
I1
sS'Edom'
p3284
I51
sS'described'
p3285
I2
sS'Hashmonah'
p3286
I2
sS'Ezem'
p3287
I1
sS'Most'
p3288
I1
sS'Sephar'
p3289
I1
sS'empty'
p3290
I18
sS'Shenazar'
p3291
I1
sS'lived'
p3292
I44
sS'else'
p3293
I12
sS'Jeroboam'
p3294
I80
sS'lives'
p3295
I15
sS'liver'
p3296
I11
sS'bidding'
p3297
I1
sS'Thorns'
p3298
I1
sS'Meddle'
p3299
I1
sS'utmost'
p3300
I5
sS'look'
p3301
I55
sS'Jazer'
p3302
I7
sS'Cuth'
p3303
I1
sS'governor'
p3304
I8
sS'Cursed'
p3305
I22
sS'while'
p3306
I55
sS'ought'
p3307
I36
sS'chariots'
p3308
I67
sS'kinswomen'
p3309
I1
sS'Darda'
p3310
I1
sS'costly'
p3311
I4
sS'walketh'
p3312
I3
sS'Furthermore'
p3313
I5
sS'herein'
p3314
I1
sS'Ithream'
p3315
I2
sS'confound'
p3316
I2
sS'rulers'
p3317
I23
sS'Hammothdor'
p3318
I1
sS'timbrels'
p3319
I4
sS'embroiderer'
p3320
I2
sS'Arvadite'
p3321
I2
sS'fairer'
p3322
I1
sS'Rakem'
p3323
I1
sS'grant'
p3324
I4
sS'belong'
p3325
I5
sS'Amittai'
p3326
I1
sS'composition'
p3327
I2
sS'clearness'
p3328
I1
sS'used'
p3329
I6
sS'Padan'
p3330
I1
sS'wanteth'
p3331
I1
sS'pomegranate'
p3332
I5
sS'stooped'
p3333
I3
sS'Pashur'
p3334
I1
sS'Omri'
p3335
I16
sS'Tarry'
p3336
I8
sS'grind'
p3337
I1
sS'Gird'
p3338
I3
sS'chronicles'
p3339
I34
sS'pricks'
p3340
I1
sS'beginnings'
p3341
I2
sS'Sardites'
p3342
I1
sS'flaming'
p3343
I1
sS'judgments'
p3344
I46
sS'morsel'
p3345
I6
sS'quarters'
p3346
I3
sS'overflown'
p3347
I1
sS'(because'
p3348
I1
sS'Jairite'
p3349
I1
sS'dwellingplace'
p3350
I1
sS'praying'
p3351
I3
sS'wounding'
p3352
I1
sS'Shimhi'
p3353
I1
sS'pronouncing'
p3354
I1
sS'rejoiceth'
p3355
I1
sS'Ekronites'
p3356
I2
sS'remaining'
p3357
I11
sS'lacking'
p3358
I4
sS'wiser'
p3359
I1
sS'wings'
p3360
I19
sS'Keziz'
p3361
I1
sS'defied'
p3362
I6
sS'Kithlish'
p3363
I1
sS'ponds'
p3364
I2
sS'Shammai'
p3365
I6
sS'pillar'
p3366
I35
sS'Paruah'
p3367
I1
sS'strife'
p3368
I6
sS'causeth'
p3369
I6
sS'provoking'
p3370
I4
sS'Kenan'
p3371
I1
sS'Epher'
p3372
I4
sS'saddled'
p3373
I10
sS'Keturah'
p3374
I4
sS'wombs'
p3375
I1
sS'largeness'
p3376
I1
sS'fathers'
p3377
I284
sS'some'
p3378
I50
sS'coney'
p3379
I2
sS'urgent'
p3380
I1
sS'lips'
p3381
I9
sS'Choose'
p3382
I3
sS'Palti'
p3383
I1
sS'eveningtide'
p3384
I1
sS'delivered'
p3385
I123
sS'exceeding'
p3386
I13
sS'Ajalon'
p3387
I2
sS'deliverer'
p3388
I4
sS'eating'
p3389
I12
sS'Maaziah'
p3390
I1
sS'Seorim'
p3391
I1
sS'step'
p3392
I1
sS'Migron'
p3393
I1
sS'pitchers'
p3394
I4
sS'abroad'
p3395
I35
sS'Shalim'
p3396
I1
sS'shine'
p3397
I1
sS'faith'
p3398
I1
sS'shewing'
p3399
I2
sS'Jahziel'
p3400
I1
sS'Jaasiel'
p3401
I1
sS'silence'
p3402
I1
sS'miracles'
p3403
I4
sS'seeing'
p3404
I39
sS'Eli'
p3405
I33
sS'within'
p3406
I79
sS'Their'
p3407
I10
sS'Zimmah'
p3408
I2
sS'Ruth'
p3409
I13
sS'leeks'
p3410
I1
sS'besieged'
p3411
I13
sS'Hodesh'
p3412
I1
sS'worshipped'
p3413
I24
sS'heritage'
p3414
I1
sS'Sixteen'
p3415
I1
sS'disallowed'
p3416
I3
sS'himself'
p3417
I166
sS'frost'
p3418
I2
sS'Syriadamascus'
p3419
I1
sS'mulberry'
p3420
I4
sS'reed'
p3421
I2
sS'womankind'
p3422
I1
sS'ceremonies'
p3423
I1
sS'Jehoiada'
p3424
I30
sS'skull'
p3425
I2
sS'Sibbechai'
p3426
I2
sS'pavilions'
p3427
I3
sS'Jahdai'
p3428
I1
sS'ordered'
p3429
I2
sS'Ispah'
p3430
I1
sS'bulrushes'
p3431
I1
sS'Avim'
p3432
I1
sS'chafed'
p3433
I1
sS'To'
p3434
I34
sS'biteth'
p3435
I1
sS'Kadesh'
p3436
I14
sS'unwise'
p3437
I1
sS'ancestors'
p3438
I1
sS'dashed'
p3439
I1
sS'TO'
p3440
I2
sS'Bileam'
p3441
I1
sS'enquired'
p3442
I21
sS'haft'
p3443
I1
sS'aprons'
p3444
I1
sS'nay'
p3445
I6
sS'draw'
p3446
I16
sS'fewest'
p3447
I1
sS'Tharshish'
p3448
I4
sS'assayed'
p3449
I2
sS'rested'
p3450
I15
sS'Saraph'
p3451
I1
sS'chameleon'
p3452
I1
sS'restrained'
p3453
I5
sS'thundered'
p3454
I2
sS'whoring'
p3455
I12
sS'Ai'
p3456
I33
sS'navy'
p3457
I6
sS'required'
p3458
I5
sS'Am'
p3459
I8
sS'Hophni'
p3460
I5
sS'An'
p3461
I4
sS'As'
p3462
I67
sS'Ar'
p3463
I5
sS'At'
p3464
I23
sS'bribe'
p3465
I1
sS'sounded'
p3466
I2
sS'Sell'
p3467
I1
sS'Azel'
p3468
I6
sS'Azem'
p3469
I2
sS'Elioenai'
p3470
I5
sS'go'
p3471
I630
sS'Non'
p3472
I1
sS'Comest'
p3473
I2
sS'anointed'
p3474
I62
sS'commandest'
p3475
I2
sS'Nob'
p3476
I4
sS'Avith'
p3477
I2
sS'attired'
p3478
I1
sS'arrogancy'
p3479
I1
sS'whoredom'
p3480
I4
sS'Not'
p3481
I3
sS'Now'
p3482
I261
sS'friendly'
p3483
I2
sS'virtuous'
p3484
I1
sS'persuade'
p3485
I2
sS'walled'
p3486
I4
sS'prudence'
p3487
I1
sS'wave'
p3488
I31
sS'rebuked'
p3489
I2
sS'trough'
p3490
I1
sS'telling'
p3491
I3
sS'yourselves'
p3492
I52
sS'kindled'
p3493
I38
sS'Imnah'
p3494
I1
sS'stiff'
p3495
I1
sS'Tabrimon'
p3496
I1
sS'gender'
p3497
I1
sS'counselled'
p3498
I3
sS'watered'
p3499
I7
sS'Baalathbeer'
p3500
I1
sS'Kohathites'
p3501
I12
sS'Beten'
p3502
I1
sS'booty'
p3503
I1
sS'Rumah'
p3504
I1
sS'sackcloth'
p3505
I11
sS'Tirzah'
p3506
I17
sS'Zacchur'
p3507
I1
sS'Heaven'
p3508
I1
sS'Tanach'
p3509
I1
sS'notwithstanding'
p3510
I4
sS'Ithmah'
p3511
I1
sS'mischiefs'
p3512
I1
sS'outgoings'
p3513
I7
sS'sepulchre'
p3514
I15
sS'Pharaohnechoh'
p3515
I4
sS';'
p3516
I3563
sS'Ardites'
p3517
I1
sS'fifteenth'
p3518
I12
sS'following'
p3519
I27
sS'making'
p3520
I6
sS'Jetheth'
p3521
I2
sS'Rabbath'
p3522
I1
sS'Likewise'
p3523
I5
sS'Ahi'
p3524
I2
sS'cupbearers'
p3525
I1
sS'stubbornness'
p3526
I2
sS'Shavsha'
p3527
I1
sS'Balaam'
p3528
I58
sS'overseer'
p3529
I2
sS'Arabia'
p3530
I1
sS'salvation'
p3531
I15
sS'almug'
p3532
I3
sS'felled'
p3533
I1
sS'Sharon'
p3534
I2
sS'wit'
p3535
I10
sS'singing'
p3536
I5
sS'Eder'
p3537
I3
sS'cloud'
p3538
I53
sS'handfuls'
p3539
I4
sS'Beor'
p3540
I9
sS'Naamah'
p3541
I4
sS'ranks'
p3542
I2
sS'offereth'
p3543
I11
sS'Beon'
p3544
I1
sS'Helah'
p3545
I2
sS'cheeks'
p3546
I1
sS'statutes'
p3547
I67
sS'carvings'
p3548
I1
sS'testified'
p3549
I6
sS'Libni'
p3550
I5
sS'Jehoadah'
p3551
I2
sS'looketh'
p3552
I8
sS'boards'
p3553
I38
sS'meek'
p3554
I1
sS'convocations'
p3555
I3
sS'archer'
p3556
I1
sS'servants'
p3557
I279
sS'meet'
p3558
I80
sS'vaunt'
p3559
I1
sS'blains'
p3560
I2
sS'Imna'
p3561
I1
sS'Bakbakkar'
p3562
I1
sS'escaped'
p3563
I24
sS'Almighty'
p3564
I11
sS'sought'
p3565
I29
sS'skirt'
p3566
I8
sS'Suchathites'
p3567
I1
sS'fare'
p3568
I1
sS'furiously'
p3569
I1
sS'Ophrah'
p3570
I8
sS'Allon'
p3571
I2
sS'consecrated'
p3572
I7
sS'encamp'
p3573
I8
sS'consecration'
p3574
I9
sS'lordly'
p3575
I1
sS'Havothjair'
p3576
I2
sS'presumptuously'
p3577
I6
sS'eventide'
p3578
I3
sS'Smite'
p3579
I6
sS'Sisera'
p3580
I18
sS'selfwill'
p3581
I1
sS'firstling'
p3582
I14
sS'rebellious'
p3583
I6
sS'mentioned'
p3584
I2
sS'Gihon'
p3585
I4
sS'Jabbok'
p3586
I7
sS'Sharaim'
p3587
I1
sS'Gudgodah'
p3588
I2
sS'thence'
p3589
I81
sS'shewed'
p3590
I56
sS'Bethlebaoth'
p3591
I1
sS'Jahzeelites'
p3592
I1
sS'Sing'
p3593
I3
sS'Shechaniah'
p3594
I2
sS'molten'
p3595
I20
sS'wonderously'
p3596
I1
sS'noonday'
p3597
I1
sS'pure'
p3598
I48
sS'hands'
p3599
I145
sS'front'
p3600
I2
sS'Provide'
p3601
I1
sS'Basmath'
p3602
I1
sS'chasten'
p3603
I1
sS'Shebuel'
p3604
I3
sS'mastery'
p3605
I1
sS'bason'
p3606
I4
sS'Zoan'
p3607
I1
sS'guard'
p3608
I26
sS'revolted'
p3609
I3
sS'Zoar'
p3610
I8
sS'slide'
p3611
I1
sS'pools'
p3612
I1
sS'upward'
p3613
I44
sS'longeth'
p3614
I2
sS'(the'
p3615
I2
sS'anointedst'
p3616
I1
sS'provender'
p3617
I6
sS'bedstead'
p3618
I2
sS'unrighteously'
p3619
I1
sS'measure'
p3620
I14
sS'turtledove'
p3621
I2
sS'special'
p3622
I1
sS'secretly'
p3623
I9
sS'confess'
p3624
I6
sS'wondrous'
p3625
I1
sS'cause'
p3626
I61
sS'Gadite'
p3627
I1
sS'Caphthorim'
p3628
I1
sS'Swear'
p3629
I5
sS'Fulfil'
p3630
I2
sS'keepeth'
p3631
I3
sS'diminished'
p3632
I1
sS'Nadab'
p3633
I20
sS'times'
p3634
I64
sS'shred'
p3635
I1
sS'mad'
p3636
I6
sS'bars'
p3637
I18
sS'stump'
p3638
I1
sS'hateth'
p3639
I5
sS'bears'
p3640
I1
sS'revealed'
p3641
I4
sS'Migdalel'
p3642
I1
sS'Ittai'
p3643
I8
sS'wrapped'
p3644
I4
sS'terribleness'
p3645
I2
sS'Argob'
p3646
I5
sS'paved'
p3647
I1
sS'Ikkesh'
p3648
I3
sS'Zoreah'
p3649
I1
sS'punish'
p3650
I2
sS'Chinneroth'
p3651
I2
sS'makest'
p3652
I1
sS'herself'
p3653
I17
sS'handbreadth'
p3654
I2
sS'girdle'
p3655
I18
sS'coast'
p3656
I53
sS'churlish'
p3657
I1
sS'bed'
p3658
I33
sS'Jobab'
p3659
I9
sS'transgression'
p3660
I6
sS'Zina'
p3661
I1
sS'Chilion'
p3662
I3
sS'bare'
p3663
I126
sS'Akkub'
p3664
I2
sS'lightly'
p3665
I4
sS'Ozem'
p3666
I2
sS'ivory'
p3667
I3
sS'thereto'
p3668
I14
sS'need'
p3669
I3
sS'constrained'
p3670
I1
sS'Azmon'
p3671
I3
sS'Gaal'
p3672
I9
sS'bastard'
p3673
I1
sS'pursued'
p3674
I31
sS'able'
p3675
I62
sS'battles'
p3676
I4
sS'sprinkled'
p3677
I15
sS'so'
p3678
I401
sS'receiveth'
p3679
I1
sS'thorns'
p3680
I7
sS'vengeance'
p3681
I5
sS'Entice'
p3682
I2
sS'tall'
p3683
I4
sS'camped'
p3684
I1
sS'expired'
p3685
I4
sS'Mibzar'
p3686
I2
sS'thunderings'
p3687
I2
sS'Jokshan'
p3688
I4
sS'Amorites'
p3689
I68
sS'soldiers'
p3690
I2
sS'shoes'
p3691
I6
sS'Thimnathah'
p3692
I1
sS'bases'
p3693
I12
sS'inherited'
p3694
I2
sS'attained'
p3695
I5
sS'employed'
p3696
I1
sS'Taphath'
p3697
I1
sS'horsehoofs'
p3698
I1
sS'righteousness'
p3699
I14
sS'Eshban'
p3700
I2
sS'joint'
p3701
I1
sS'magistrate'
p3702
I1
sS'Nebaioth'
p3703
I1
sS'ascended'
p3704
I8
sS'dwellings'
p3705
I8
sS'marvels'
p3706
I1
sS'gray'
p3707
I4
sS'sowing'
p3708
I2
sS'course'
p3709
I19
sS'Enan'
p3710
I5
sS'ordain'
p3711
I2
sS'corruption'
p3712
I2
sS'topaz'
p3713
I2
sS'she'
p3714
I535
sS'contain'
p3715
I4
sS'widow'
p3716
I23
sS'spotted'
p3717
I6
sS'multiplying'
p3718
I1
sS'burying'
p3719
I1
sS'shake'
p3720
I1
sS'Ezar'
p3721
I1
sS'Send'
p3722
I14
sS'Lahmam'
p3723
I1
sS'fryingpan'
p3724
I2
sS'corpses'
p3725
I1
sS'Good'
p3726
I1
sS'southward'
p3727
I19
sS'Adummim'
p3728
I2
sS'Joshaviah'
p3729
I1
sS'written'
p3730
I65
sS'apiece'
p3731
I4
sS'Shimronites'
p3732
I1
sS'Taralah'
p3733
I1
sS'tens'
p3734
I3
sS'neither'
p3735
I233
sS'kidneys'
p3736
I17
sS'tent'
p3737
I90
sS'sorely'
p3738
I1
sS'buckets'
p3739
I1
sS'spared'
p3740
I6
sS'Remain'
p3741
I1
sS'rinsed'
p3742
I3
sS'merry'
p3743
I11
sS'precious'
p3744
I20
sS'cuttest'
p3745
I1
sS'haughty'
p3746
I1
sS'interpretations'
p3747
I1
sS'diligent'
p3748
I2
sS'Shema'
p3749
I5
sS'disobeyed'
p3750
I1
sS'minds'
p3751
I3
sS'Ahio'
p3752
I6
sS'knops'
p3753
I9
sS'scabbed'
p3754
I2
sS'Jehubbah'
p3755
I1
sS'forbare'
p3756
I1
sS'Lod'
p3757
I1
sS'Oh'
p3758
I13
sS'Peleth'
p3759
I2
sS'Lot'
p3760
I32
sS'kings'
p3761
I133
sS'Adonibezek'
p3762
I3
sS'aloes'
p3763
I1
sS'turneth'
p3764
I7
sS'tread'
p3765
I5
sS'addition'
p3766
I1
sS'Lodebar'
p3767
I3
sS'thanked'
p3768
I1
sS'Araunah'
p3769
I9
sS'stealeth'
p3770
I1
sS'shoulders'
p3771
I12
sS'both'
p3772
I160
sS'digged'
p3773
I16
sS'Hamutal'
p3774
I2
sS'Maoch'
p3775
I1
sS'ours'
p3776
I4
sS'fearest'
p3777
I1
sS'And'
p3778
I7467
sS'Hanan'
p3779
I4
sS'Zacher'
p3780
I1
sS'harden'
p3781
I7
sS'Raddai'
p3782
I1
sS'Holon'
p3783
I2
sS'adulterer'
p3784
I1
sS'Elienai'
p3785
I1
sS'sustenance'
p3786
I2
sS'Eleph'
p3787
I1
sS'hearted'
p3788
I8
sS'cometh'
p3789
I50
sS'Korathites'
p3790
I1
sS'Akan'
p3791
I1
sS'shooting'
p3792
I1
sS'began'
p3793
I67
sS'upside'
p3794
I1
sS'begat'
p3795
I167
sS'parts'
p3796
I19
sS'Sihor'
p3797
I1
sS'enchantments'
p3798
I7
sS'scourged'
p3799
I1
sS'effect'
p3800
I1
sS'Pour'
p3801
I1
sS'Telah'
p3802
I1
sS'discouraged'
p3803
I4
sS'fierce'
p3804
I7
sS'lieth'
p3805
I34
sS'Sihon'
p3806
I33
sS'destruction'
p3807
I5
sS'Gezer'
p3808
I13
sS'cleaveth'
p3809
I1
sS'well'
p3810
I129
sS'amends'
p3811
I1
sS'Have'
p3812
I11
sS'compelled'
p3813
I1
sS'restore'
p3814
I20
sS'taller'
p3815
I1
sS'Bethgader'
p3816
I1
sS'Uriah'
p3817
I26
sS'liked'
p3818
I1
sS'Canaanite'
p3819
I11
sS'distant'
p3820
I1
sS'purified'
p3821
I4
sS'dost'
p3822
I10
sS'Peaceably'
p3823
I2
sS'Be'
p3824
I29
sS'deprived'
p3825
I1
sS'Bukkiah'
p3826
I2
sS'Ashnah'
p3827
I2
sS'mitre'
p3828
I11
sS'indignation'
p3829
I2
sS'kick'
p3830
I1
sS'Cherubims'
p3831
I1
sS'kinswoman'
p3832
I2
sS'Beerah'
p3833
I1
sS'devised'
p3834
I2
sS'crushed'
p3835
I3
sS'burden'
p3836
I16
sS'loss'
p3837
I2
sS'lost'
p3838
I9
sS'riddle'
p3839
I8
sS'lose'
p3840
I2
sS'Phinehas'
p3841
I21
sS'firstfruits'
p3842
I14
sS'blindeth'
p3843
I1
sS'therein'
p3844
I103
sS'shed'
p3845
I19
sS'belonged'
p3846
I8
sS'tempered'
p3847
I2
sS'shew'
p3848
I65
sS'husk'
p3849
I2
sS'deliverance'
p3850
I6
sS'Zabdi'
p3851
I5
sS'Breach'
p3852
I1
sS'Hitherto'
p3853
I2
sS'Shephathiah'
p3854
I1
sS'Baalberith'
p3855
I2
sS'Tabor'
p3856
I7
sS'broad'
p3857
I7
sS'kettle'
p3858
I1
sS'inflammation'
p3859
I2
sS'communed'
p3860
I10
sS'hinder'
p3861
I4
sS'Uz'
p3862
I4
sS'Bethel'
p3863
I52
sS'Ur'
p3864
I4
sS'Sabtechah'
p3865
I1
sS'industrious'
p3866
I1
sS'Jeshohaiah'
p3867
I1
sS'refuge'
p3868
I22
sS'whelps'
p3869
I1
sS'murmurings'
p3870
I8
sS'purifieth'
p3871
I1
sS'freedom'
p3872
I1
sS'stamp'
p3873
I1
sS'dominion'
p3874
I13
sS'tongue'
p3875
I7
sS'fluttereth'
p3876
I1
sS'Pispah'
p3877
I1
sS'equally'
p3878
I1
sS'jubile'
p3879
I22
sS'Tirathites'
p3880
I1
sS'girt'
p3881
I1
sS'additions'
p3882
I2
sS'Aloth'
p3883
I1
sS'tabernacle'
p3884
I277
sS'doubtless'
p3885
I1
sS'rejoice'
p3886
I21
sS'Kohath'
p3887
I32
sS'Sethur'
p3888
I1
sS'inner'
p3889
I9
sS'north'
p3890
I35
sS'Abdon'
p3891
I7
sS'pilled'
p3892
I2
sS'fountains'
p3893
I5
sS'gain'
p3894
I1
sS'courts'
p3895
I5
sS'Gileadites'
p3896
I4
sS'overflow'
p3897
I1
sS'ear'
p3898
I18
sS'eat'
p3899
I344
sS'he'
p3900
I4109
sS'leper'
p3901
I10
sS'cumbrance'
p3902
I1
sS'Gittahhepher'
p3903
I1
sS'wringed'
p3904
I1
sS'grieve'
p3905
I2
sS'cruel'
p3906
I3
sS'stories'
p3907
I1
sS'delights'
p3908
I1
sS'Ephah'
p3909
I4
sS'Kishon'
p3910
I6
sS'piece'
p3911
I13
sS'signet'
p3912
I7
sS'Riphath'
p3913
I2
sS'Joel'
p3914
I15
sS'diligently'
p3915
I12
sS'Jehoahaz'
p3916
I16
sS'devise'
p3917
I4
sS'Mezahab'
p3918
I2
sS'Barzillai'
p3919
I8
sS'Ararat'
p3920
I1
sS'kissed'
p3921
I18
sS'Arphaxad'
p3922
I9
sS'Shall'
p3923
I27
sS'Shalem'
p3924
I1
sS'Deliver'
p3925
I3
sS'Besides'
p3926
I1
sS'Pekahiah'
p3927
I3
sS'Sabta'
p3928
I1
sS'Shalt'
p3929
I2
sS'Hepher'
p3930
I9
sS'stay'
p3931
I12
sS'Paltiel'
p3932
I1
sS'Jezoar'
p3933
I1
sS'friends'
p3934
I5
sS'appoint'
p3935
I18
sS'Misheal'
p3936
I1
sS'adulteress'
p3937
I1
sS'baked'
p3938
I3
sS'abhor'
p3939
I8
sS'portion'
p3940
I25
sS'Meonenim'
p3941
I1
sS'aided'
p3942
I1
sS'pardon'
p3943
I6
sS'Matred'
p3944
I2
sS'protest'
p3945
I2
sS'astray'
p3946
I2
sS'perverted'
p3947
I1
sS'trodden'
p3948
I3
sS'Hushai'
p3949
I14
sS'Hushah'
p3950
I1
sS'captain'
p3951
I90
sS'Husham'
p3952
I4
sS'Ehi'
p3953
I1
sS'whose'
p3954
I94
sS'swan'
p3955
I2
sS'aul'
p3956
I2
sS'sinew'
p3957
I2
sS'presents'
p3958
I3
sS'pisseth'
p3959
I6
sS'dukes'
p3960
I15
sS'sorry'
p3961
I1
sS'Mehujael'
p3962
I2
sS'Avites'
p3963
I2
sS'Hazarsusah'
p3964
I1
sS'rescue'
p3965
I1
sS'evilfavouredness'
p3966
I1
sS'void'
p3967
I7
sS'hadst'
p3968
I7
sS'Ishiah'
p3969
I1
sS'nourished'
p3970
I2
sS'confederate'
p3971
I1
sS'conception'
p3972
I2
sS'courageous'
p3973
I3
sS'embroider'
p3974
I1
sS'Aaronites'
p3975
I2
sS'Ehud'
p3976
I10
sS'holiness'
p3977
I2
sS'clothed'
p3978
I5
sS'Mahali'
p3979
I1
sS'greenish'
p3980
I2
sS'Ahinadab'
p3981
I1
sS'clothes'
p3982
I65
sS'favoured'
p3983
I11
sS'foreskins'
p3984
I4
sS'force'
p3985
I5
sS'sheddeth'
p3986
I1
sS'hundredfold'
p3987
I2
sS'lavers'
p3988
I5
sS'even'
p3989
I527
sS'snares'
p3990
I2
sS'saved'
p3991
I22
sS'Pua'
p3992
I1
sS'assembled'
p3993
I15
sS'spokesman'
p3994
I1
sS'lights'
p3995
I4
sS'Put'
p3996
I12
sS'new'
p3997
I29
sS'net'
p3998
I2
sS'ever'
p3999
I129
sS'snared'
p4000
I2
sS'Ethanim'
p4001
I1
sS'Pisgah'
p4002
I5
sS'men'
p4003
I709
sS'Shemer'
p4004
I2
sS'drew'
p4005
I48
sS'Ocran'
p4006
I5
sS'met'
p4007
I22
sS'interpret'
p4008
I4
sS'dry'
p4009
I23
sS'rests'
p4010
I1
sS'Carmelite'
p4011
I5
sS'Japhia'
p4012
I5
sS'buckler'
p4013
I3
sS'howbeit'
p4014
I10
sS'eyebrows'
p4015
I1
sS'reckoned'
p4016
I11
sS'Abelshittim'
p4017
I1
sS'Also'
p4018
I33
sS'threshingfloor'
p4019
I16
sS'ninety'
p4020
I8
sS'guests'
p4021
I2
sS'drowned'
p4022
I1
sS'plenteous'
p4023
I5
sS'army'
p4024
I22
sS'watering'
p4025
I1
sS'arms'
p4026
I6
sS'call'
p4027
I46
sS'wentest'
p4028
I7
sS'tell'
p4029
I70
sS'calf'
p4030
I14
sS'Phallu'
p4031
I1
sS'Rephael'
p4032
I1
sS'wars'
p4033
I5
sS'warp'
p4034
I9
sS'Betah'
p4035
I1
sS'Leummim'
p4036
I1
sS'warm'
p4037
I1
sS'ward'
p4038
I13
sS'Kirjathsannah'
p4039
I1
sS'Lasharon'
p4040
I1
sS'Rimmonparez'
p4041
I2
sS'room'
p4042
I14
sS'ministry'
p4043
I2
sS'roof'
p4044
I9
sS'root'
p4045
I4
sS'Lie'
p4046
I2
sS'Zarethshahar'
p4047
I1
sS'give'
p4048
I340
sS'Whereas'
p4049
I4
sS'Alvah'
p4050
I1
sS'Ishtob'
p4051
I2
sS'honey'
p4052
I31
sS'ready'
p4053
I24
sS'Rezon'
p4054
I1
sS'Parnach'
p4055
I1
sS'hoar'
p4056
I3
sS'rib'
p4057
I5
sS'Raamses'
p4058
I1
sS'faults'
p4059
I1
sS'Azubah'
p4060
I3
sS'answer'
p4061
I19
sS'faulty'
p4062
I1
sS'Nineveh'
p4063
I3
sS'Haste'
p4064
I3
sS'Jecamiah'
p4065
I1
sS'purchase'
p4066
I2
sS'All'
p4067
I76
sS'third'
p4068
I86
sS'brick-kiln'
p4069
I1
sS'assuredly'
p4070
I1
sS'maintain'
p4071
I4
sS'Kirjathjearim'
p4072
I16
sS'tribulations'
p4073
I1
sS'Hide'
p4074
I1
sS'befall'
p4075
I6
sS'clave'
p4076
I10
sS'Malchishua'
p4077
I3
sS'wickedness'
p4078
I27
sS'before'
p4079
I928
sS'Helez'
p4080
I5
sS'mandrakes'
p4081
I5
sS'threshingfloors'
p4082
I1
sS','
p4083
I28904
sS'Jotbah'
p4084
I1
sS'better'
p4085
I19
sS'Berechiah'
p4086
I4
sS'Helek'
p4087
I2
sS'Observe'
p4088
I3
sS'Helem'
p4089
I1
sS'weeks'
p4090
I7
sS'Heleb'
p4091
I1
sS'Heled'
p4092
I1
sS'overcome'
p4093
I6
sS'diest'
p4094
I1
sS'Amalekites'
p4095
I24
sS'liers'
p4096
I10
sS'9'
p4097
I30
sS'sceptre'
p4098
I1
sS'Dedan'
p4099
I5
sS'Haphraim'
p4100
I1
sS'Shedeur'
p4101
I5
sS'Nazarite'
p4102
I9
sS'brightness'
p4103
I1
sS'Indeed'
p4104
I1
sS'Timna'
p4105
I4
sS'Ishmeelite'
p4106
I1
sS'Nimshi'
p4107
I4
sS'Hath'
p4108
I6
sS'fringes'
p4109
I2
sS'Dimonah'
p4110
I1
sS'roast'
p4111
I4
sS'went'
p4112
I819
sS'side'
p4113
I212
sS'bone'
p4114
I10
sS'mean'
p4115
I6
sS'lign'
p4116
I1
sS'skins'
p4117
I24
sS'ministering'
p4118
I1
sS'taught'
p4119
I4
sS'stealing'
p4120
I1
sS'Woe'
p4121
I3
sS'contend'
p4122
I2
sS'merchants'
p4123
I3
sS'Chislon'
p4124
I1
sS'Cabbon'
p4125
I1
sS'broughtest'
p4126
I8
sS'content'
p4127
I8
sS'committeth'
p4128
I2
sS'Gathhepher'
p4129
I1
sS'Must'
p4130
I1
sS'rehearsed'
p4131
I2
sS'Dodo'
p4132
I5
sS'shoulderpieces'
p4133
I4
sS'Azrikam'
p4134
I4
sS'bestow'
p4135
I2
sS'destroyeth'
p4136
I1
sS'mistress'
p4137
I5
sS'Bukki'
p4138
I4
sS'needlework'
p4139
I8
sS'leanfleshed'
p4140
I3
sS'steward'
p4141
I5
sS'cheweth'
p4142
I8
sS'Dost'
p4143
I1
sS'target'
p4144
I2
sS'doers'
p4145
I2
sS'cellars'
p4146
I2
sS'loud'
p4147
I8
sS'thereon'
p4148
I38
sS'thereof'
p4149
I388
sS'hook'
p4150
I1
sS'floors'
p4151
I1
sS'Bathsheba'
p4152
I10
sS'hoof'
p4153
I12
sS'dwelt'
p4154
I156
sS'Jebusites'
p4155
I22
sS'usurer'
p4156
I1
sS'butlership'
p4157
I1
sS'blasphemy'
p4158
I1
sS'sleepeth'
p4159
I1
sS'dwell'
p4160
I121
sS'solemnly'
p4161
I2
sS'Bathshua'
p4162
I1
sS'Zaanaim'
p4163
I1
sS'excelled'
p4164
I1
sS'villages'
p4165
I47
sS'tokens'
p4166
I3
sS'somewhat'
p4167
I12
sS'ravin'
p4168
I1
sS'peculiar'
p4169
I3
sS'bidden'
p4170
I3
sS'bitterness'
p4171
I3
sS'preparation'
p4172
I1
sS'matter'
p4173
I29
sS'louder'
p4174
I2
sS'deserving'
p4175
I1
sS'spoiled'
p4176
I9
sS'hailstones'
p4177
I1
sS'seer'
p4178
I12
sS'palace'
p4179
I6
sS'quench'
p4180
I2
sS'mind'
p4181
I12
sS'mine'
p4182
I157
sS'Gideon'
p4183
I39
sS'seed'
p4184
I129
sS'bewailed'
p4185
I1
sS'seen'
p4186
I80
sS'seem'
p4187
I9
sS'sounding'
p4188
I2
sS'seek'
p4189
I39
sS'Rimmon'
p4190
I13
sS'Palluites'
p4191
I1
sS'harrows'
p4192
I2
sS'Egyptian'
p4193
I22
sS'thereout'
p4194
I2
sS'Nahash'
p4195
I9
sS'Wherewith'
p4196
I1
sS'Dabbasheth'
p4197
I1
sS'Ivah'
p4198
I2
sS'riseth'
p4199
I3
sS'servitor'
p4200
I1
sS'carnally'
p4201
I3
sS'Sanctuary'
p4202
I1
sS'Aholibamah'
p4203
I8
sS'alarm'
p4204
I5
sS'chargedst'
p4205
I1
sS'dog'
p4206
I9
sS'dunghill'
p4207
I1
sS'brakest'
p4208
I2
sS'bringest'
p4209
I1
sS'breathed'
p4210
I3
sS'Jerahmeel'
p4211
I7
sS'hunger'
p4212
I4
sS'Shelomith'
p4213
I7
sS'retire'
p4214
I1
sS'sown'
p4215
I6
sS'Samson'
p4216
I38
sS'Tamar'
p4217
I22
sS'Alvan'
p4218
I1
sS'Circumcise'
p4219
I1
sS'judges'
p4220
I28
sS'Achsa'
p4221
I1
sS'hoary'
p4222
I1
sS'Rameses'
p4223
I4
sS'brimstone'
p4224
I2
sS'judged'
p4225
I23
sS'polled'
p4226
I3
sS'wearing'
p4227
I1
sS'rejoicing'
p4228
I1
sS'executedst'
p4229
I1
sS'stop'
p4230
I2
sS'perceive'
p4231
I5
sS'raiment'
p4232
I28
sS'Leave'
p4233
I1
sS'meditate'
p4234
I2
sS'Zepho'
p4235
I2
sS'Zephi'
p4236
I1
sS'bat'
p4237
I2
sS'bar'
p4238
I5
sS'Jeezerites'
p4239
I1
sS'fields'
p4240
I25
sS'Over'
p4241
I4
sS'bay'
p4242
I3
sS'bag'
p4243
I3
sS'bad'
p4244
I13
sS'softly'
p4245
I4
sS'Edomites'
p4246
I7
sS'troop'
p4247
I8
sS'ears'
p4248
I51
sS'EleloheIsrael'
p4249
I1
sS'prophesy'
p4250
I6
sS'blameless'
p4251
I3
sS'decided'
p4252
I1
sS'Jiphthahel'
p4253
I2
sS'said'
p4254
I2263
sS'Run'
p4255
I3
sS'shaven'
p4256
I4
sS'shaved'
p4257
I3
sS'causeway'
p4258
I2
sS'Azzan'
p4259
I1
sS'Zilthai'
p4260
I2
sS'sorts'
p4261
I1
sS'vows'
p4262
I13
sS'yesternight'
p4263
I3
sS'ignorance'
p4264
I13
sS'staves'
p4265
I40
sS'weary'
p4266
I8
sS'Uzzensherah'
p4267
I1
sS'Bethjeshimoth'
p4268
I2
sS'Otherwise'
p4269
I4
sS'Makkedah'
p4270
I9
sS'horsemen'
p4271
I29
sS'strawed'
p4272
I1
sS'Zared'
p4273
I1
sS'botch'
p4274
I2
sS'against'
p4275
I622
sS'Syrian'
p4276
I8
sS'Zaphon'
p4277
I1
sS'gushed'
p4278
I1
sS'Mesha'
p4279
I4
sS'appeared'
p4280
I34
sS'height'
p4281
I28
sS'offerings'
p4282
I161
sS'springs'
p4283
I9
sS'tasted'
p4284
I2
sS'proceeded'
p4285
I3
sS'sheepfolds'
p4286
I2
sS'Paarai'
p4287
I1
sS'three'
p4288
I267
sS'compasseth'
p4289
I3
sS'entered'
p4290
I15
sS'lovely'
p4291
I1
sS'idol'
p4292
I2
sS'threw'
p4293
I2
sS'deeper'
p4294
I7
sS'prosperous'
p4295
I4
sS'Saddle'
p4296
I2
sS'Gehazi'
p4297
I12
sS'Jehovahshalom'
p4298
I1
sS'Jehezekel'
p4299
I1
sS'Hezron'
p4300
I18
sS'Ulla'
p4301
I1
sS'sheepshearers'
p4302
I3
sS'reddish'
p4303
I6
sS'Canaan'
p4304
I83
sS'near'
p4305
I108
sS'melted'
p4306
I5
sS'suppose'
p4307
I1
sS'Achbor'
p4308
I5
sS'Molid'
p4309
I1
sS'Bethmarcaboth'
p4310
I2
sS'seven'
p4311
I255
sS'is'
p4312
I1749
sS'it'
p4313
I2653
sS'shame'
p4314
I4
sS'in'
p4315
I4663
sS'Nay'
p4316
I26
sS'mouse'
p4317
I1
sS'sever'
p4318
I2
sS'if'
p4319
I463
sS'grown'
p4320
I13
sS'bottles'
p4321
I3
sS'Chinnereth'
p4322
I4
sS'fatherless'
p4323
I13
sS'travailed'
p4324
I3
sS'make'
p4325
I424
sS'Pelatiah'
p4326
I2
sS'knewest'
p4327
I2
sS'belly'
p4328
I9
sS'handmaids'
p4329
I3
sS'sodden'
p4330
I5
sS'bells'
p4331
I3
sS'governors'
p4332
I5
sS'Alamoth'
p4333
I1
sS'delight'
p4334
I8
sS'kin'
p4335
I7
sS'unicorn'
p4336
I2
sS'jealous'
p4337
I11
sS'thoughts'
p4338
I4
sS'kid'
p4339
I39
sS'butter'
p4340
I3
sS'Jerioth'
p4341
I1
sS'Enmishpat'
p4342
I1
sS'settled'
p4343
I2
sS'Cheran'
p4344
I2
sS'brokenfooted'
p4345
I1
sS'inherit'
p4346
I24
sS'Ain'
p4347
I5
sS'estate'
p4348
I1
sS'yours'
p4349
I2
sS'left'
p4350
I171
sS'just'
p4351
I10
sS'sentence'
p4352
I4
sS'yea'
p4353
I10
sS'sporting'
p4354
I1
sS'(save'
p4355
I1
sS'assigned'
p4356
I3
sS'Ashteroth'
p4357
I1
sS'divideth'
p4358
I5
sS'Elishama'
p4359
I12
sS'wafers'
p4360
I5
sS'yet'
p4361
I144
sS'regarded'
p4362
I3
sS'royal'
p4363
I8
sS'affinity'
p4364
I1
sS'overthrown'
p4365
I3
sS'becamest'
p4366
I1
sS'calledst'
p4367
I2
sS'save'
p4368
I64
sS'Teman'
p4369
I5
sS'discreet'
p4370
I2
sS'Bethrapha'
p4371
I1
sS'destroy'
p4372
I89
sS'passeth'
p4373
I10
sS'dreams'
p4374
I9
sS'vanity'
p4375
I1
sS'shoulder'
p4376
I22
sS'dignity'
p4377
I1
sS'Art'
p4378
I14
sS'Mahanehdan'
p4379
I1
sS'performing'
p4380
I2
sS'northward'
p4381
I17
sS'Chesed'
p4382
I1
sS'Ara'
p4383
I1
sS'Ard'
p4384
I3
sS'Are'
p4385
I7
sS'Arm'
p4386
I1
sS'Korahites'
p4387
I1
sS'deal'
p4388
I27
sS'divineth'
p4389
I1
sS'deaf'
p4390
I2
sS'dead'
p4391
I128
sS'Holy'
p4392
I1
sS'Beer'
p4393
I2
sS'Ahian'
p4394
I1
sS'Ahiam'
p4395
I2
sS'Ahiah'
p4396
I4
sS'Nethinims'
p4397
I1
sS'Geuel'
p4398
I1
sS'beget'
p4399
I4
sS'knew'
p4400
I60
sS'Meonothai'
p4401
I1
sS'burn'
p4402
I72
sS'Shiphtan'
p4403
I1
sS'chasteneth'
p4404
I2
sS'Potiphar'
p4405
I2
sS'keeper'
p4406
I9
sS'bury'
p4407
I24
sS'wept'
p4408
I49
sS'conceal'
p4409
I2
sS'ribs'
p4410
I1
sS'haply'
p4411
I1
sS'Magog'
p4412
I2
sS'afternoon'
p4413
I1
sS'craftsman'
p4414
I1
sS'commit'
p4415
I18
sS'hotly'
p4416
I1
sS'hatest'
p4417
I1
sS'anointing'
p4418
I24
sS'lied'
p4419
I1
sS'reaping'
p4420
I1
sS'lien'
p4421
I1
sS'Canaanitess'
p4422
I1
sS'down'
p4423
I429
sS'lies'
p4424
I2
sS'doctrine'
p4425
I1
sS'carving'
p4426
I2
sS'forgat'
p4427
I3
sS'refined'
p4428
I2
sS'Stay'
p4429
I1
sS'murderers'
p4430
I1
sS'flying'
p4431
I2
sS'sojourner'
p4432
I7
sS'roebucks'
p4433
I1
sS'Mearah'
p4434
I1
sS'Arodites'
p4435
I1
sS'sojourned'
p4436
I10
sS'offering'
p4437
I598
sS'Jegarsahadutha'
p4438
I1
sS'ford'
p4439
I1
sS'garments'
p4440
I53
sS'Hazael'
p4441
I20
sS'blindness'
p4442
I4
sS'fort'
p4443
I1
sS'continuance'
p4444
I2
sS'lilies'
p4445
I2
sS'bounds'
p4446
I4
sS'Gezrites'
p4447
I1
sS'privily'
p4448
I2
sS'sapphire'
p4449
I3
sS'Suffer'
p4450
I1
sS'stirreth'
p4451
I1
sS'hewers'
p4452
I8
sS'sticks'
p4453
I4
sS'Jahaza'
p4454
I1
sS'covert'
p4455
I2
sS'covers'
p4456
I3
sS'sale'
p4457
I3
sS'Massa'
p4458
I2
sS'fashioned'
p4459
I1
sS'Gaza'
p4460
I11
sS'widows'
p4461
I1
sS'unholy'
p4462
I1
sS'Meshillemith'
p4463
I1
sS'excel'
p4464
I2
sS'handed'
p4465
I1
sS'answerable'
p4466
I1
sS'venison'
p4467
I8
sS'Samaritans'
p4468
I1
sS'Agag'
p4469
I8
sS'Ebed'
p4470
I5
sS'felt'
p4471
I2
sS'Bethhoglah'
p4472
I2
sS'killeth'
p4473
I16
sS'Eber'
p4474
I12
sS'fell'
p4475
I116
sS'budded'
p4476
I2
sS'pierced'
p4477
I1
sS'died'
p4478
I146
sS'scholar'
p4479
I1
sS'Pethor'
p4480
I2
sS'daily'
p4481
I8
sS'Second'
p4482
I4
sS'Romamtiezer'
p4483
I2
sS'teeth'
p4484
I4
sS'Chronicles'
p4485
I2
sS'restored'
p4486
I16
sS'Ethnan'
p4487
I1
sS'relieve'
p4488
I1
sS'souls'
p4489
I35
sS'bondmaid'
p4490
I1
sS'Simri'
p4491
I1
sS'skin'
p4492
I55
sS'mill'
p4493
I1
sS'abundant'
p4494
I1
sS'milk'
p4495
I24
sS'Entappuah'
p4496
I1
sS'praises'
p4497
I2
sS'Mibhar'
p4498
I1
sS'father'
p4499
I620
sS'Mattaniah'
p4500
I4
sS'answered'
p4501
I181
sS'foursquare'
p4502
I6
sS'marks'
p4503
I1
sS'suffered'
p4504
I9
sS'shoot'
p4505
I6
sS'plaister'
p4506
I5
sS'whensoever'
p4507
I1
sS'minish'
p4508
I1
sS'Where'
p4509
I17
sS'Ardon'
p4510
I1
sS'Abram'
p4511
I60
sS'dim'
p4512
I5
sS'Eltolad'
p4513
I2
sS'banished'
p4514
I2
sS'excellency'
p4515
I5
sS'die'
p4516
I161
sS'dig'
p4517
I3
sS'keepers'
p4518
I6
sS'fatfleshed'
p4519
I2
sS'dip'
p4520
I9
sS'round'
p4521
I139
sS'shave'
p4522
I11
sS'talked'
p4523
I17
sS'Deuel'
p4524
I4
sS'fearing'
p4525
I1
sS'sawed'
p4526
I1
sS'wherefore'
p4527
I50
sS'Ophni'
p4528
I1
sS'run'
p4529
I16
sS'Tolaites'
p4530
I1
sS'lighteth'
p4531
I2
sS'imagined'
p4532
I1
sS'Heal'
p4533
I1
sS'favour'
p4534
I20
sS'Hear'
p4535
I25
sS'Hagarites'
p4536
I3
sS'drunkard'
p4537
I1
sS'covetousness'
p4538
I1
sS'filled'
p4539
I31
sS'Rapha'
p4540
I2
sS'dwarf'
p4541
I1
sS'dwelled'
p4542
I6
sS'lusting'
p4543
I1
sS'Raphu'
p4544
I1
sS'Michmethah'
p4545
I2
sS'refused'
p4546
I12
sS'earthquake'
p4547
I3
sS'wait'
p4548
I30
sS'box'
p4549
I2
sS'Irnahash'
p4550
I1
sS'reconciling'
p4551
I1
sS'bow'
p4552
I35
sS'Anani'
p4553
I1
sS'onycha'
p4554
I1
sS'shook'
p4555
I3
sS'bruised'
p4556
I2
sS'cuckow'
p4557
I2
sS'hither'
p4558
I33
sS'When'
p4559
I106
sS'Shammah'
p4560
I8
sS'withal'
p4561
I18
sS'Haggith'
p4562
I5
sS'Asshur'
p4563
I5
sS'Toah'
p4564
I1
sS'wealth'
p4565
I8
sS'sake'
p4566
I38
sS'visit'
p4567
I6
sS'Esarhaddon'
p4568
I1
sS'vineyard'
p4569
I24
sS'sharpen'
p4570
I2
sS'Baalhanan'
p4571
I5
sS'Tahrea'
p4572
I1
sS'Ben'
p4573
I1
sS'acceptable'
p4574
I2
sS'olive'
p4575
I17
sS'hoshaphat'
p4576
I1
sS'fly'
p4577
I3
sS'Duke'
p4578
I8
sS'Pallu'
p4579
I4
sS'Baharumite'
p4580
I1
sS'Shimeam'
p4581
I1
sS'Gareb'
p4582
I2
sS'soul'
p4583
I133
sS'Abner'
p4584
I63
sS'Numbers'
p4585
I1
sS'maidservants'
p4586
I9
sS'Chedorlaomer'
p4587
I5
sS'lords'
p4588
I24
sS'Tappuah'
p4589
I6
sS'drawer'
p4590
I1
sS'battered'
p4591
I1
sS'Uzzah'
p4592
I4
sS'Gederothaim'
p4593
I1
sS'Ahishar'
p4594
I1
sS'Joktheel'
p4595
I2
sS'Jarha'
p4596
I2
sS'pine'
p4597
I2
sS'till'
p4598
I41
sS'gourds'
p4599
I1
sS'sword'
p4600
I143
sS'pins'
p4601
I10
sS'Tolad'
p4602
I1
sS'sworn'
p4603
I20
sS'Nimrod'
p4604
I3
sS'loaves'
p4605
I10
sS'mar'
p4606
I4
sS'maw'
p4607
I1
sS'may'
p4608
I438
sS'Uri'
p4609
I7
sS'mankind'
p4610
I2
sS'Ohel'
p4611
I1
sS'Shunem'
p4612
I3
sS'grow'
p4613
I6
sS'man'
p4614
I910
sS'neck'
p4615
I17
sS'Puah'
p4616
I3
sS'purify'
p4617
I6
sS'Gershonite'
p4618
I3
sS'tale'
p4619
I4
sS'provide'
p4620
I4
sS'Mahazioth'
p4621
I2
sS'deceive'
p4622
I4
sS'basket'
p4623
I17
sS'omer'
p4624
I5
sS'talk'
p4625
I5
sS'lodgest'
p4626
I1
sS'shield'
p4627
I15
sS'Likhi'
p4628
I1
sS'Enhaddah'
p4629
I1
sS'Leshem'
p4630
I2
sS'Heldai'
p4631
I1
sS'pitch'
p4632
I15
sS'slewest'
p4633
I1
sS'chiefest'
p4634
I3
sS'Dibongad'
p4635
I2
sS'Eliahba'
p4636
I2
sS'maid'
p4637
I23
sS'tillage'
p4638
I1
sS'enquire'
p4639
I25
sS'settest'
p4640
I3
sS'Sherah'
p4641
I1
sS'Ebronah'
p4642
I2
sS'Azmaveth'
p4643
I6
sS'Ulam'
p4644
I4
sS'stretchedst'
p4645
I1
sS'touching'
p4646
I5
sS'She'
p4647
I11
sS'killed'
p4648
I20
sS'possess'
p4649
I73
sS'healeth'
p4650
I1
sS'Baaltamar'
p4651
I1
sS'Pinon'
p4652
I2
sS'arrows'
p4653
I14
sS'spreadeth'
p4654
I2
sS'careless'
p4655
I1
sS'rock'
p4656
I39
sS'hinges'
p4657
I1
sS'belongest'
p4658
I1
sS'Shoot'
p4659
I1
sS'Luz'
p4660
I8
sS'fighteth'
p4661
I3
sS'thee-ward'
p4662
I1
sS'gird'
p4663
I4
sS'Lud'
p4664
I2
sS'befell'
p4665
I3
sS'Nephtoah'
p4666
I2
sS'giveth'
p4667
I50
sS'living'
p4668
I41
sS'Jahaz'
p4669
I3
sS'lad'
p4670
I33
sS'Whereupon'
p4671
I1
sS'undersetters'
p4672
I4
sS'ingathering'
p4673
I2
sS'Aliah'
p4674
I1
sS'assurance'
p4675
I1
sS'ruddy'
p4676
I2
sS'Manasseh'
p4677
I118
sS'Hazerim'
p4678
I1
sS'Chesulloth'
p4679
I1
sS'brooks'
p4680
I6
sS'spies'
p4681
I12
sS'five'
p4682
I201
sS'Chesalon'
p4683
I1
sS'fuller'
p4684
I1
sS'spied'
p4685
I6
sS'Arabah'
p4686
I2
sS'Kishion'
p4687
I1
sS'Forasmuch'
p4688
I7
sS'Delaiah'
p4689
I1
sS'language'
p4690
I7
sS'goest'
p4691
I32
sS'refuseth'
p4692
I4
sS'prayeth'
p4693
I1
sS'Ephesdammim'
p4694
I1
sS'thing'
p4695
I285
sS'thine'
p4696
I411
sS'Sibmah'
p4697
I1
sS'Tarea'
p4698
I1
sS'think'
p4699
I3
sS'waited'
p4700
I6
sS'first'
p4701
I179
sS'cheese'
p4702
I1
sS'dwelling'
p4703
I15
sS'fleeing'
p4704
I2
sS'nativity'
p4705
I2
sS'diviners'
p4706
I2
sS'long'
p4707
I58
sS'servedst'
p4708
I1
sS'carry'
p4709
I39
sS'fourscore'
p4710
I21
sS'discharged'
p4711
I1
sS'little'
p4712
I76
sS'slept'
p4713
I30
sS'plains'
p4714
I21
sS'Levi'
p4715
I53
sS'fiery'
p4716
I4
sS'spakest'
p4717
I7
sS'Bethshemesh'
p4718
I17
sS'speaking'
p4719
I15
sS'Carmelitess'
p4720
I2
sS'eyes'
p4721
I164
sS'Abitub'
p4722
I1
sS'Almon'
p4723
I1
sS'caterpiller'
p4724
I1
sS'eyed'
p4725
I2
sS'cleanse'
p4726
I9
sS'Ahisamach'
p4727
I3
sS'knives'
p4728
I3
sS'venture'
p4729
I1
sS'were'
p4730
I1345
sS'gathering'
p4731
I5
sS'lick'
p4732
I2
sS'cuttings'
p4733
I2
sS'lice'
p4734
I5
sS'voices'
p4735
I2
sS'dash'
p4736
I1
sS'winding'
p4737
I1
sS'Bozkath'
p4738
I1
sS'conspiracy'
p4739
I6
sS'Zedekiah'
p4740
I10
sS'Achshaph'
p4741
I3
sS'occupied'
p4742
I2
sS'Shaul'
p4743
I7
sS'Do'
p4744
I17
sS'vestments'
p4745
I2
sS'foreigner'
p4746
I2
sS'Hermon'
p4747
I10
sS'haste'
p4748
I18
sS'bondservice'
p4749
I1
sS'Kenizzites'
p4750
I1
sS'sheets'
p4751
I2
sS'bowels'
p4752
I8
sS'coveted'
p4753
I1
sS'Jahaziel'
p4754
I4
sS'wreathen'
p4755
I10
sS'Makaz'
p4756
I1
sS'felloes'
p4757
I1
sS'hewer'
p4758
I1
sS'bleating'
p4759
I1
sS'shot'
p4760
I10
sS'Gath'
p4761
I28
sS'shoe'
p4762
I6
sS'threshold'
p4763
I4
sS'corner'
p4764
I6
sS'Wisdom'
p4765
I1
sS'cornet'
p4766
I1
sS'We'
p4767
I65
sS'Alameth'
p4768
I1
sS'bondwomen'
p4769
I1
sS'Shimeah'
p4770
I4
sS'treasure'
p4771
I5
sS'enough'
p4772
I13
sS'Ephron'
p4773
I13
sS'black'
p4774
I3
sS'treasury'
p4775
I2
sS'Ishmaelite'
p4776
I1
sS'Ishpan'
p4777
I1
sS'Enhazor'
p4778
I1
sS'get'
p4779
I48
sS'moons'
p4780
I2
sS'Eshtaulites'
p4781
I1
sS'Turn'
p4782
I14
sS'Eliathah'
p4783
I2
sS'Answerest'
p4784
I1
sS'firstborn'
p4785
I94
sS'disinherit'
p4786
I1
sS'beseech'
p4787
I13
sS'Hotham'
p4788
I1
sS'Angel'
p4789
I4
sS'yield'
p4790
I9
sS'morning'
p4791
I132
sS'grieveth'
p4792
I1
sS'Idbash'
p4793
I1
sS'declared'
p4794
I6
sS'Grant'
p4795
I1
sS'seas'
p4796
I4
sS'eighteenth'
p4797
I6
sS'seat'
p4798
I36
sS'doings'
p4799
I5
sS'seal'
p4800
I1
sS'reproached'
p4801
I2
sS'wonder'
p4802
I3
sS'Sichem'
p4803
I1
sS'Forgive'
p4804
I1
sS'Meronothite'
p4805
I1
sS'behind'
p4806
I37
sS'strakes'
p4807
I2
sS'Heber'
p4808
I13
sS'Shepham'
p4809
I2
sS'whispered'
p4810
I1
sS'killing'
p4811
I1
sS'coupleth'
p4812
I2
sS'countenance'
p4813
I16
sS'Each'
p4814
I1
sS'singers'
p4815
I8
sS'Eliphaz'
p4816
I9
sS'according'
p4817
I386
sS'Eliphal'
p4818
I1
sS'among'
p4819
I364
sS'Korhites'
p4820
I3
sS'Treason'
p4821
I2
sS'slain'
p4822
I71
sS'stretched'
p4823
I26
sS'Lael'
p4824
I1
sS'writing'
p4825
I7
sS'beforetime'
p4826
I7
sS'custody'
p4827
I1
sS'Ashchenaz'
p4828
I1
sS'Uzzia'
p4829
I1
sS'Uzziah'
p4830
I6
sS'certify'
p4831
I1
sS'mark'
p4832
I4
sS'acre'
p4833
I1
sS'Assemble'
p4834
I1
sS'borders'
p4835
I29
sS'Zebul'
p4836
I6
sS'fiftieth'
p4837
I4
sS'offered'
p4838
I83
sS'discomfited'
p4839
I7
sS'Jetur'
p4840
I3
sS'captivity'
p4841
I10
sS'sound'
p4842
I21
sS'bullocks'
p4843
I25
sS'turtles'
p4844
I3
sS'doest'
p4845
I14
sS'bathe'
p4846
I18
sS'Zeruah'
p4847
I1
sS'Shubael'
p4848
I3
sS'strait'
p4849
I4
sS'leavened'
p4850
I11
sS'dedicate'
p4851
I4
sS'middle'
p4852
I14
sS'Jehdeiah'
p4853
I2
sS'baths'
p4854
I5
sS'wisely'
p4855
I5
sS'bags'
p4856
I2
sS'paw'
p4857
I2
sS'pay'
p4858
I11
sS'manslayer'
p4859
I2
sS'same'
p4860
I92
sS'wizards'
p4861
I6
sS'speech'
p4862
I10
sS'disquieted'
p4863
I1
sS'locusts'
p4864
I5
sS'pan'
p4865
I6
sS'oil'
p4866
I132
sS'Archite'
p4867
I5
sS'companion'
p4868
I5
sS'running'
p4869
I15
sS'firstlings'
p4870
I5
sS'Bethuel'
p4871
I10
sS'adjure'
p4872
I1
sS'Defile'
p4873
I2
sS'Rend'
p4874
I1
sS'roughly'
p4875
I4
sS'bottle'
p4876
I8
sS'Jaakobah'
p4877
I1
sS'Zarah'
p4878
I2
sS'amazed'
p4879
I2
sS'coffer'
p4880
I3
sS'gates'
p4881
I44
sS'Zartanah'
p4882
I1
sS'badest'
p4883
I1
sS'money'
p4884
I87
sS'Deuteronomy'
p4885
I1
sS'Elipheleh'
p4886
I2
sS'Sepharvites'
p4887
I1
sS'Eltekeh'
p4888
I2
sS'graving'
p4889
I2
sS'dipped'
p4890
I6
sS'beryl'
p4891
I2
sS'Temeni'
p4892
I1
sS'4'
p4893
I27
sS'Although'
p4894
I2
sS'Jaakan'
p4895
I1
sS'Izhar'
p4896
I8
sS'Withdraw'
p4897
I1
sS'Tanhumeth'
p4898
I1
sS'Gibeonite'
p4899
I1
sS'Siphmoth'
p4900
I1
sS'Tochen'
p4901
I1
sS'lightning'
p4902
I1
sS'chamber'
p4903
I22
sS'audience'
p4904
I6
sS'nose'
p4905
I2
sS'served'
p4906
I50
sS'thirsted'
p4907
I1
sS'fulfil'
p4908
I3
sS'unrighteous'
p4909
I1
sS'afflict'
p4910
I18
sS'witchcraft'
p4911
I1
sS'ascend'
p4912
I1
sS'Whatsoever'
p4913
I8
sS'images'
p4914
I25
sS'pasture'
p4915
I4
sS'ascent'
p4916
I3
sS'deputy'
p4917
I1
sS'confirm'
p4918
I3
sS'Geshurites'
p4919
I5
sS'Elpaal'
p4920
I3
sS'Jebusite'
p4921
I13
sS'knife'
p4922
I3
sS'Medes'
p4923
I2
sS'ovens'
p4924
I1
sS'Ashur'
p4925
I2
sS'manservant'
p4926
I10
sS'broken'
p4927
I25
sS'subtilty'
p4928
I2
sS'Assuredly'
p4929
I3
sS'roar'
p4930
I1
sS'Eliasaph'
p4931
I6
sS'violence'
p4932
I4
sS'Baalzephon'
p4933
I3
sS'mixed'
p4934
I1
sS'road'
p4935
I1
sS'quietly'
p4936
I1
sS'lands'
p4937
I12
sS'dagger'
p4938
I3
sS'spreading'
p4939
I1
sS'blessed'
p4940
I94
sS'harness'
p4941
I2
sS'Barley'
p4942
I1
sS'strip'
p4943
I3
sS'Jehud'
p4944
I1
sS'Ishi'
p4945
I5
sS'pastures'
p4946
I1
sS'Though'
p4947
I3
sS'daubed'
p4948
I1
sS'Zuzims'
p4949
I1
sS'Astaroth'
p4950
I1
sS'cursest'
p4951
I1
sS'lions'
p4952
I9
sS'vesture'
p4953
I1
sS'Malluch'
p4954
I1
sS'Lebaoth'
p4955
I1
sS'Hosah'
p4956
I5
sS'Ephrathites'
p4957
I1
sS'judging'
p4958
I1
sS'Whither'
p4959
I5
sS'Horims'
p4960
I2
sS'wiping'
p4961
I1
sS'gore'
p4962
I1
sS'spice'
p4963
I2
sS'poison'
p4964
I2
sS'Uzzi'
p4965
I7
sS'Chesil'
p4966
I1
sS'kinsman'
p4967
I15
sS'Uzza'
p4968
I8
sS'Ava'
p4969
I1
sS'affection'
p4970
I1
sS'railed'
p4971
I1
sS'Hasenuah'
p4972
I1
sS'Ahijah'
p4973
I17
sS'deer'
p4974
I1
sS'deep'
p4975
I8
sS'fellow'
p4976
I14
sS'imagination'
p4977
I5
sS'Abiasaph'
p4978
I1
sS'Samlah'
p4979
I4
sS'lifetime'
p4980
I1
sS'deed'
p4981
I7
sS'fill'
p4982
I6
sS'again'
p4983
I242
sS'Aniam'
p4984
I1
sS'repent'
p4985
I7
sS'field'
p4986
I158
sS'Nehushta'
p4987
I1
sS'mattocks'
p4988
I1
sS'Jemuel'
p4989
I2
sS'clothe'
p4990
I1
sS'Nathanmelech'
p4991
I1
sS'Zimran'
p4992
I2
sS'Rephaiah'
p4993
I4
sS'bondservant'
p4994
I1
sS'peradventure'
p4995
I19
sS'brands'
p4996
I1
sS'prudent'
p4997
I1
sS'resembled'
p4998
I1
sS'grudge'
p4999
I1
sS'sewed'
p5000
I1
sS'Beerothites'
p5001
I1
sS'craftsmen'
p5002
I3
sS'overlived'
p5003
I1
sS'lapped'
p5004
I2
sS'forget'
p5005
I13
sS'vile'
p5006
I5
sS'forbidden'
p5007
I2
sS'worms'
p5008
I2
sS'Moon'
p5009
I1
sS'sunk'
p5010
I2
sS'Ibneiah'
p5011
I1
sS'ignorantly'
p5012
I2
sS'children'
p5013
I1110
sS'Ijon'
p5014
I2
sS'Huri'
p5015
I1
sS'those'
p5016
I139
sS'issued'
p5017
I1
sS'Tartan'
p5018
I1
sS'Sippai'
p5019
I1
sS'Tartak'
p5020
I1
sS'speaketh'
p5021
I5
sS'Shemaah'
p5022
I1
sS'bestir'
p5023
I1
sS'overplus'
p5024
I1
sS'parcel'
p5025
I5
sS'sitting'
p5026
I7
sS'Jaziz'
p5027
I1
sS'Shiza'
p5028
I1
sS'Dibri'
p5029
I1
sS'Elishua'
p5030
I2
sS'Seirath'
p5031
I1
sS'fall'
p5032
I51
sS'difference'
p5033
I4
sS'Aramitess'
p5034
I1
sS'washing'
p5035
I2
sS'Ishuai'
p5036
I1
sS'Shaalbonite'
p5037
I2
sS'buryingplace'
p5038
I7
sS'Jokim'
p5039
I1
sS'withheld'
p5040
I4
sS'grasshopper'
p5041
I1
sS'mayest'
p5042
I75
sS'Only'
p5043
I25
sS'Threescore'
p5044
I1
sS'Igal'
p5045
I2
sS'further'
p5046
I3
sS'Betonim'
p5047
I1
sS'residue'
p5048
I2
sS'dial'
p5049
I1
sS'defence'
p5050
I1
sS'stood'
p5051
I142
sS'stool'
p5052
I1
sS'Beeroth'
p5053
I4
sS'Jezreel'
p5054
I29
sS'tribute'
p5055
I16
sS'everlasting'
p5056
I15
sS'Resheph'
p5057
I1
sS'quenched'
p5058
I2
sS'Malchiah'
p5059
I1
sS'Amon'
p5060
I7
sS'lightnings'
p5061
I2
sS'vale'
p5062
I8
sS'falleth'
p5063
I7
sS'ranges'
p5064
I3
sS'favourable'
p5065
I1
sS'Ebal'
p5066
I8
sS'standard'
p5067
I10
sS'Geshuri'
p5068
I2
sS'search'
p5069
I18
sS'tortoise'
p5070
I1
sS'psalms'
p5071
I1
sS'enmity'
p5072
I3
sS'Reuel'
p5073
I10
sS'Nod'
p5074
I1
sS'fatted'
p5075
I1
sS'misery'
p5076
I1
sS'Naomi'
p5077
I21
sS'narrow'
p5078
I3
sS'spoil'
p5079
I37
sS'wizard'
p5080
I2
sS'Tehinnah'
p5081
I1
sS'Baalgad'
p5082
I3
sS'beginnest'
p5083
I1
sS'establish'
p5084
I19
sS'eye'
p5085
I21
sS'two'
p5086
I514
sS'Ezrahite'
p5087
I1
sS'Canaanitish'
p5088
I2
sS'Makheloth'
p5089
I2
sS'puttest'
p5090
I4
sS'Sceptre'
p5091
I1
sS'longedst'
p5092
I1
sS'diamond'
p5093
I2
sS'cedars'
p5094
I7
sS'stable'
p5095
I1
sS'goads'
p5096
I1
sS'Gershom'
p5097
I13
sS'Gershon'
p5098
I18
sS'Ziphion'
p5099
I1
sS'sleeping'
p5100
I1
sS'nineteen'
p5101
I3
sS'town'
p5102
I4
sS'none'
p5103
I95
sS'lefthanded'
p5104
I2
sS'cluster'
p5105
I2
sS'dew'
p5106
I15
sS'remain'
p5107
I31
sS'Ribai'
p5108
I2
sS'marble'
p5109
I1
sS'lingered'
p5110
I2
sS'stubborn'
p5111
I3
sS'Enshemesh'
p5112
I2
sS'Ithran'
p5113
I3
sS'share'
p5114
I1
sS'numbers'
p5115
I1
sS'purchased'
p5116
I3
sS'sharp'
p5117
I5
sS'Cause'
p5118
I1
sS'!'
p5119
I49
sS'needs'
p5120
I5
sS'needy'
p5121
I2
sS'comfort'
p5122
I8
sS'Diklah'
p5123
I2
sS'stir'
p5124
I1
sS'Shaaraim'
p5125
I2
sS'Jeduthun'
p5126
I11
sS'Nehushtan'
p5127
I1
sS'advice'
p5128
I4
sS'Mibsam'
p5129
I3
sS'blood'
p5130
I215
sS'coming'
p5131
I17
sS'Dor'
p5132
I7
sS'morter'
p5133
I4
sS'coat'
p5134
I18
sS'Goliath'
p5135
I6
sS'coal'
p5136
I1
sS'Engedi'
p5137
I3
sS'skilful'
p5138
I4
sS'pleasure'
p5139
I3
sS'stripling'
p5140
I1
sS'playing'
p5141
I3
sS'What'
p5142
I123
sS'earing'
p5143
I2
sS'displease'
p5144
I4
sS'winged'
p5145
I2
sS'avouched'
p5146
I2
sS'dough'
p5147
I4
sS'suffer'
p5148
I11
sS'hundredth'
p5149
I2
sS'possessions'
p5150
I6
sS'bosom'
p5151
I17
sS'famished'
p5152
I1
sS'Elijah'
p5153
I66
sS'Appaim'
p5154
I2
sS'messes'
p5155
I1
sS'mightest'
p5156
I6
sS'sheaves'
p5157
I4
sS'hurting'
p5158
I1
sS'good'
p5159
I199
sS'Paseah'
p5160
I1
sS'Chelubai'
p5161
I1
sS'males'
p5162
I18
sS'Abelmeholah'
p5163
I3
sS'ospray'
p5164
I2
sS'Methegammah'
p5165
I1
sS'walls'
p5166
I16
sS'compound'
p5167
I1
sS'Fight'
p5168
I1
sS'complain'
p5169
I1
sS'Hazarsusim'
p5170
I1
sS'Abez'
p5171
I1
sS'Ezbai'
p5172
I1
sS'ashes'
p5173
I19
sS'token'
p5174
I9
sS'Shelanites'
p5175
I1
sS'shekels'
p5176
I88
sS'Abel'
p5177
I12
sS'harm'
p5178
I7
sS'Evilmerodach'
p5179
I1
sS'nakedness'
p5180
I41
sS'hare'
p5181
I2
sS'hard'
p5182
I22
sS'foxes'
p5183
I1
sS'Build'
p5184
I4
sS'fist'
p5185
I1
sS'hart'
p5186
I4
sS'harp'
p5187
I6
sS'mustered'
p5188
I1
sS'Nezib'
p5189
I1
sS'creditor'
p5190
I2
sS'Halah'
p5191
I3
sS'Ohad'
p5192
I2
sS'pigeon'
p5193
I2
sS'flowed'
p5194
I1
sS'avenge'
p5195
I6
sS'print'
p5196
I1
sS'Adiel'
p5197
I3
sS'henceforward'
p5198
I1
sS'Timnathserah'
p5199
I2
sS'stewards'
p5200
I1
sS'ouches'
p5201
I8
sS'bulls'
p5202
I1
sS'pleasant'
p5203
I7
sS'dealeth'
p5204
I2
sS'Enos'
p5205
I6
sS'beginning'
p5206
I16
sS'betwixt'
p5207
I10
sS'prophet'
p5208
I61
sS'(Also'
p5209
I1
sS'conducted'
p5210
I1
sS'coulter'
p5211
I1
sS'Er'
p5212
I10
sS'Salcah'
p5213
I3
sS'done'
p5214
I225
sS'embraced'
p5215
I3
sS'Etham'
p5216
I4
sS'wages'
p5217
I7
sS'cups'
p5218
I1
sS'razor'
p5219
I4
sS'twenty'
p5220
I176
sS'entreated'
p5221
I3
sS'least'
p5222
I9
sS'thickets'
p5223
I1
sS'pains'
p5224
I1
sS'conspirators'
p5225
I1
sS'Phalti'
p5226
I1
sS'opening'
p5227
I1
sS'conduit'
p5228
I2
sS'pare'
p5229
I1
sS'Homam'
p5230
I1
sS'travail'
p5231
I3
sS'part'
p5232
I91
sS'drunkenness'
p5233
I1
sS'believe'
p5234
I9
sS'gotten'
p5235
I11
sS'liketh'
p5236
I1
sS'ungodly'
p5237
I1
sS'youth'
p5238
I14
sS'contrary'
p5239
I7
sS'riddance'
p5240
I1
sS'declare'
p5241
I7
sS'Manoah'
p5242
I18
sS'Amorite'
p5243
I10
sS'ditches'
p5244
I1
sS'Elbethel'
p5245
I1
sS'fillets'
p5246
I8
sS'Search'
p5247
I1
sS'Bethzur'
p5248
I2
sS'showers'
p5249
I1
sS'aged'
p5250
I1
sS'sicknesses'
p5251
I2
sS'built'
p5252
I87
sS'firstfruit'
p5253
I1
sS'dancing'
p5254
I5
sS'Kir'
p5255
I1
sS'Gibeathite'
p5256
I1
sS'couch'
p5257
I1
sS'Arab'
p5258
I1
sS'build'
p5259
I69
sS'Arad'
p5260
I5
sS'Arah'
p5261
I1
sS'Aran'
p5262
I2
sS'Mosera'
p5263
I1
sS'Aram'
p5264
I7
sS'Hadad'
p5265
I14
sS'Tarah'
p5266
I2
sS'eggs'
p5267
I2
sS'depths'
p5268
I3
sS'most'
p5269
I41
sS'Huram'
p5270
I8
sS'Hadar'
p5271
I2
sS'Hurai'
p5272
I1
sS'Shiphi'
p5273
I1
sS'Levite'
p5274
I22
sS'Shinab'
p5275
I1
sS'Egypt'
p5276
I371
sS'Zidonians'
p5277
I9
sS'Eldad'
p5278
I2
sS'Shinar'
p5279
I4
sS'weigh'
p5280
I1
sS'pomegranates'
p5281
I16
sS'western'
p5282
I1
sS'intreated'
p5283
I8
sS'Tirhakah'
p5284
I1
sS'rebels'
p5285
I2
sS'fins'
p5286
I5
sS'driveth'
p5287
I1
sS'scattered'
p5288
I12
sS'vowest'
p5289
I1
sS'carefully'
p5290
I1
sS'fine'
p5291
I73
sS'find'
p5292
I45
sS'giant'
p5293
I7
sS'dividing'
p5294
I2
sS'distributed'
p5295
I2
sS'Malcham'
p5296
I1
sS'Sarid'
p5297
I2
sS'defiled'
p5298
I33
sS'8'
p5299
I22
sS'(Which'
p5300
I1
sS'Thirty'
p5301
I2
sS'ferret'
p5302
I1
sS'courage'
p5303
I13
sS'breast'
p5304
I11
sS'theft'
p5305
I2
sS'slingers'
p5306
I1
sS'sepulchres'
p5307
I3
sS'merchandise'
p5308
I2
sS'Enrogel'
p5309
I4
sS'Saying'
p5310
I2
sS'Hebrews'
p5311
I18
sS'girdeth'
p5312
I1
sS'doubled'
p5313
I3
sS'Mallothi'
p5314
I2
sS'common'
p5315
I4
sS'Ebenezer'
p5316
I3
sS'devils'
p5317
I2
sS'vine'
p5318
I15
sS'Moab'
p5319
I93
sS'lion'
p5320
I28
sS'Ithai'
p5321
I1
sS'tender'
p5322
I10
sS'Esek'
p5323
I1
sS'feared'
p5324
I31
sS'(But'
p5325
I1
sS'Boscath'
p5326
I1
sS'expert'
p5327
I3
sS'visiting'
p5328
I4
sS'please'
p5329
I6
sS'smallest'
p5330
I1
sS'wrestlings'
p5331
I1
sS'Egyptians'
p5332
I79
sS'burned'
p5333
I25
sS'Isaiah'
p5334
I13
sS'Anem'
p5335
I1
sS'Aner'
p5336
I3
sS'getteth'
p5337
I1
sS'trespassed'
p5338
I4
sS'floats'
p5339
I2
sS'Beerothite'
p5340
I4
sS'folding'
p5341
I2
sS'reverse'
p5342
I1
sS'journeyed'
p5343
I29
sS'Yea'
p5344
I7
sS'Reubenite'
p5345
I1
sS'possesseth'
p5346
I1
sS'afar'
p5347
I11
sS'Yet'
p5348
I26
sS'cakes'
p5349
I22
sS'consume'
p5350
I18
sS'point'
p5351
I4
sS'waxen'
p5352
I9
sS'Hivite'
p5353
I9
sS'dances'
p5354
I5
sS'Gera'
p5355
I9
sS'Mephibosheth'
p5356
I15
sS'Bethshittah'
p5357
I1
sS'throughout'
p5358
I105
sS'kernels'
p5359
I1
sS'consuming'
p5360
I2
sS'longsuffering'
p5361
I2
sS'raise'
p5362
I13
sS'smote'
p5363
I159
sS'bondwoman'
p5364
I4
sS'Chidon'
p5365
I1
sS'thistles'
p5366
I1
sS'kneadingtroughs'
p5367
I2
sS'meeting'
p5368
I1
sS'Athach'
p5369
I1
sS'astonishment'
p5370
I2
sS'Gibeonites'
p5371
I6
sS'Elhanan'
p5372
I4
sS'Areli'
p5373
I2
sS'Dilean'
p5374
I1
sS'gat'
p5375
I17
sS'cruelty'
p5376
I2
sS'Shepho'
p5377
I1
sS'Ashbelites'
p5378
I1
sS'Shephi'
p5379
I1
sS'Feed'
p5380
I1
sS'pierce'
p5381
I2
sS'Jokneam'
p5382
I4
sS'raw'
p5383
I7
sS'Rachel'
p5384
I46
sS'deferred'
p5385
I1
sS'rigour'
p5386
I5
sS'birthright'
p5387
I9
sS'Joash'
p5388
I33
sS'Helekites'
p5389
I1
sS'violently'
p5390
I3
sS'fellest'
p5391
I1
sS'Iru'
p5392
I1
sS'Shashak'
p5393
I2
sS'Iri'
p5394
I1
sS'itself'
p5395
I9
sS'Hearken'
p5396
I7
sS'perverseness'
p5397
I1
sS'sabbaths'
p5398
I14
sS'Elparan'
p5399
I1
sS'ewe'
p5400
I7
sS'wherein'
p5401
I62
sS'Shalmaneser'
p5402
I2
sS'Chemosh'
p5403
I5
sS'stript'
p5404
I1
sS'itch'
p5405
I1
sS'praising'
p5406
I1
sS'Netophathites'
p5407
I2
sS'yesterday'
p5408
I4
sS'pransings'
p5409
I2
sS'moment'
p5410
I3
sS'stripe'
p5411
I2
sS'Shibmah'
p5412
I1
sS'task'
p5413
I2
sS'Hepherites'
p5414
I1
sS'Aharah'
p5415
I1
sS'spent'
p5416
I5
sS'morrow'
p5417
I66
sS'flags'
p5418
I2
sS'appertain'
p5419
I1
sS'landmark'
p5420
I2
sS'entry'
p5421
I3
sS'Jerusalem'
p5422
I170
sS'Shillemites'
p5423
I1
sS'spend'
p5424
I1
sS'Gomorrah'
p5425
I11
sS'mourneth'
p5426
I1
sS'openly'
p5427
I1
sS'timber'
p5428
I17
sS'letting'
p5429
I1
sS'cut'
p5430
I113
sS'cup'
p5431
I13
sS'hated'
p5432
I24
sS'scales'
p5433
I5
sS'shouting'
p5434
I2
sS'adjured'
p5435
I2
sS'cud'
p5436
I11
sS'Zithri'
p5437
I1
sS'circumcision'
p5438
I1
sS'impoverished'
p5439
I1
sS'Uzziel'
p5440
I14
sS'livest'
p5441
I2
sS'adversaries'
p5442
I6
sS'Did'
p5443
I12
sS'bid'
p5444
I6
sS'saluted'
p5445
I4
sS'matters'
p5446
I6
sS'redeem'
p5447
I39
sS'maidservant'
p5448
I14
sS'apt'
p5449
I2
sS'bit'
p5450
I1
sS'blemish'
p5451
I47
sS'forepart'
p5452
I3
sS'glede'
p5453
I1
sS'Hodiah'
p5454
I1
sS'foolish'
p5455
I2
sS'transgress'
p5456
I2
sS'scrip'
p5457
I1
sS'valleys'
p5458
I8
sS'lodging'
p5459
I2
sS'abundantly'
p5460
I10
sS'back'
p5461
I59
sS'Whom'
p5462
I2
sS'Ahuzam'
p5463
I1
sS'ornaments'
p5464
I6
sS'ourselves'
p5465
I7
sS'acquaintance'
p5466
I2
sS'lucre'
p5467
I1
sS'scall'
p5468
I14
sS'lepers'
p5469
I1
sS'pen'
p5470
I1
sS'Nothing'
p5471
I1
sS'Fifteen'
p5472
I1
sS'either'
p5473
I21
sS'remembered'
p5474
I9
sS'clay'
p5475
I2
sS'fed'
p5476
I13
sS'O'
p5477
I146
sS'Bow'
p5478
I1
sS'chargeable'
p5479
I1
sS'flanks'
p5480
I5
sS'Ezra'
p5481
I1
sS'Ezbon'
p5482
I2
sS'Ezri'
p5483
I1
sS'Reba'
p5484
I2
sS'standest'
p5485
I3
sS'Jabesh'
p5486
I12
sS'Increase'
p5487
I1
sS'remembrance'
p5488
I6
sS'Zavan'
p5489
I1
sS'Nimrah'
p5490
I1
sS'(out'
p5491
I1
sS'Moseroth'
p5492
I2
sS'Obil'
p5493
I1
sS'smiteth'
p5494
I8
sS'errand'
p5495
I3
sS'loveth'
p5496
I5
sS'forward'
p5497
I29
sS'Jesher'
p5498
I1
sS'translate'
p5499
I1
sS'Come'
p5500
I59
sS'Hur'
p5501
I15
sS'pronounce'
p5502
I23
sS'triest'
p5503
I1
sS'butlers'
p5504
I1
sS'(There'
p5505
I1
sS'boys'
p5506
I1
sS'Melchizedek'
p5507
I1
sS'Bedan'
p5508
I2
sS'Timnite'
p5509
I1
sS'concubines'
p5510
I9
sS'calleth'
p5511
I1
sS'sort'
p5512
I6
sS'consulter'
p5513
I1
sS'stripped'
p5514
I6
sS'Kirjathhuzoth'
p5515
I1
sS'possessor'
p5516
I2
sS'Migdol'
p5517
I2
sS'consulted'
p5518
I3
sS'mightier'
p5519
I8
sS'necks'
p5520
I7
sS'gleanings'
p5521
I1
sS'prevail'
p5522
I7
sS'brethren'
p5523
I251
sS'Shemariah'
p5524
I1
sS'Bilhan'
p5525
I4
sS'Ner'
p5526
I16
sS'Bilhah'
p5527
I11
sS'delicateness'
p5528
I1
sS'Mattithiah'
p5529
I6
sS'Medan'
p5530
I2
sS'Man'
p5531
I1
sS'numberest'
p5532
I2
sS'Jashen'
p5533
I1
sS'Hathath'
p5534
I1
sS'lend'
p5535
I12
sS'Pirathon'
p5536
I1
sS'Jeshimon'
p5537
I6
sS'Cast'
p5538
I3
sS'utterly'
p5539
I54
sS'lent'
p5540
I5
sS'fishes'
p5541
I2
sS'Mahalaleel'
p5542
I6
sS'bulwarks'
p5543
I1
sS'desert'
p5544
I8
sS'Shittim'
p5545
I3
sS'Gur'
p5546
I1
sS'Danjaan'
p5547
I1
sS'Pasach'
p5548
I1
sS'Pelonite'
p5549
I3
sS'Unclean'
p5550
I1
sS'chariot'
p5551
I38
sS'Midianites'
p5552
I23
sS'Thinkest'
p5553
I2
sS'Zebulunites'
p5554
I1
sS'graves'
p5555
I2
sS'appointed'
p5556
I42
sS'breaches'
p5557
I9
sS'graven'
p5558
I22
sS'Nekeb'
p5559
I1
sS'queen'
p5560
I7
sS'presently'
p5561
I1
sS'Jehosheba'
p5562
I1
sS'perversely'
p5563
I2
sS'Tiria'
p5564
I1
sS'Humtah'
p5565
I1
sS'putting'
p5566
I3
sS'Endor'
p5567
I2
sS'tenons'
p5568
I6
sS'augment'
p5569
I1
sS'iniquity'
p5570
I54
sS'Hamath'
p5571
I16
sS'husbandman'
p5572
I1
sS'kinsmen'
p5573
I1
sS'Baalath'
p5574
I2
sS'ride'
p5575
I9
sS'transgressed'
p5576
I11
sS'toucheth'
p5577
I30
sS'crop'
p5578
I1
sS'rivers'
p5579
I7
sS'Helon'
p5580
I5
sS'proceedeth'
p5581
I4
sS'quaked'
p5582
I2
sS'reconciliation'
p5583
I1
sS'Hagerite'
p5584
I1
sS'giving'
p5585
I5
sS'chewed'
p5586
I1
sS'pipes'
p5587
I1
sS'Tachmonite'
p5588
I1
sS'paddle'
p5589
I1
sS'Zamzummims'
p5590
I1
sS'piped'
p5591
I1
sS'withersoever'
p5592
I1
sS'body'
p5593
I20
sS'exchange'
p5594
I2
sS'beasts'
p5595
I39
sS'sins'
p5596
I34
sS'sing'
p5597
I9
sS'Hazarshual'
p5598
I3
sS'extreme'
p5599
I1
sS'talent'
p5600
I8
sS'stalks'
p5601
I1
sS'Bethlehemjudah'
p5602
I10
sS'wouldest'
p5603
I17
sS'Karnaim'
p5604
I1
sS'honor'
p5605
I1
sS'fourfold'
p5606
I1
sS'named'
p5607
I9
sS'manna'
p5608
I11
sS'Vex'
p5609
I1
sS'Jahleelites'
p5610
I1
sS'Bizjothjah'
p5611
I1
sS'names'
p5612
I69
sS'Answer'
p5613
I1
sS'seethe'
p5614
I7
sS'Bezaleel'
p5615
I8
sS'Paltite'
p5616
I1
sS'sodomite'
p5617
I1
sS'butler'
p5618
I8
sS'themselves'
p5619
I123
sS'Ahuzzath'
p5620
I1
sS'Hanani'
p5621
I4
sS'train'
p5622
I1
sS'ashamed'
p5623
I8
sS'Sacar'
p5624
I2
sS'harvest'
p5625
I27
sS'account'
p5626
I2
sS'praise'
p5627
I12
sS'fetch'
p5628
I24
sS'fringe'
p5629
I2
sS'reserved'
p5630
I6
sS'Nergal'
p5631
I1
sS'Eshkalonites'
p5632
I1
sS'therin'
p5633
I1
sS'Edrei'
p5634
I8
sS'Eglon'
p5635
I13
sS'Vophsi'
p5636
I1
sS'Shapher'
p5637
I2
sS'bones'
p5638
I26
sS'Heberites'
p5639
I1
sS'lamb'
p5640
I64
sS'lame'
p5641
I10
sS'Drink'
p5642
I3
sS'Ye'
p5643
I111
sS'noised'
p5644
I1
sS'lamp'
p5645
I5
sS'forest'
p5646
I5
sS'Piram'
p5647
I1
sS'furnace'
p5648
I7
sS'stock'
p5649
I1
sS'hangings'
p5650
I17
sS'Zizah'
p5651
I1
sS'waters'
p5652
I94
sS'Malchiel'
p5653
I3
sS'carbuncle'
p5654
I2
sS'fray'
p5655
I1
sS'scurvy'
p5656
I2
sS'chasing'
p5657
I1
sS'Abinadab'
p5658
I13
sS'bind'
p5659
I14
sS'lines'
p5660
I1
sS'trembling'
p5661
I5
sS'linen'
p5662
I64
sS'chief'
p5663
I101
sS'furnish'
p5664
I1
sS'Kedemah'
p5665
I2
sS'Haruz'
p5666
I1
sS'Beside'
p5667
I4
sS'Harum'
p5668
I1
sS'horns'
p5669
I29
sS'fetcht'
p5670
I1
sS'thyself'
p5671
I70
sS'Mehir'
p5672
I1
sS'bunch'
p5673
I1
sS'Ilai'
p5674
I1
sS'Gerar'
p5675
I8
sS'whereon'
p5676
I16
sS'lo'
p5677
I31
sS'whereof'
p5678
I26
sS'willing'
p5679
I10
sS'image'
p5680
I35
sS'Slack'
p5681
I1
sS'Elihu'
p5682
I4
sS'dam'
p5683
I5
sS'mention'
p5684
I4
sS'cutting'
p5685
I2
sS'(Now'
p5686
I8
sS'Shishak'
p5687
I2
sS'kindness'
p5688
I27
sS'day'
p5689
I772
sS'strive'
p5690
I7
sS'Lehabim'
p5691
I2
sS'warned'
p5692
I1
sS'Israel'
p5693
I1698
sS'dwelleth'
p5694
I12
sS'Zebudah'
p5695
I1
sS'lively'
p5696
I1
sS'From'
p5697
I25
sS'Amnon'
p5698
I28
sS'Elonbethhanan'
p5699
I1
sS'tabrets'
p5700
I1
sS'Shimeathites'
p5701
I1
sS'kids'
p5702
I6
sS'hedges'
p5703
I1
sS'defend'
p5704
I3
sS'Regard'
p5705
I1
sS'wholly'
p5706
I15
sS'Abarim'
p5707
I4
sS'barley'
p5708
I22
sS'stead'
p5709
I70
sS'marvelled'
p5710
I1
sS'red'
p5711
I11
sS'thereupon'
p5712
I1
sS'careth'
p5713
I1
sS'Sheba'
p5714
I20
sS'approached'
p5715
I2
sS'Huphamites'
p5716
I1
sS'fourteen'
p5717
I17
sS'upbraid'
p5718
I1
sS'Calah'
p5719
I2
sS'widowhood'
p5720
I2
sS'mortar'
p5721
I1
sS'Libnites'
p5722
I2
sS'yarn'
p5723
I4
sS'Kartah'
p5724
I1
sS'sorrowful'
p5725
I1
sS'Jebusi'
p5726
I2
sS'south'
p5727
I67
sS'Reumah'
p5728
I1
sS'Zuar'
p5729
I5
sS'Guni'
p5730
I4
sS'savour'
p5731
I40
sS'sack'
p5732
I12
sS'betroth'
p5733
I1
sS'reached'
p5734
I4
sS'sockets'
p5735
I53
sS'Kibzaim'
p5736
I1
sS'ancient'
p5737
I4
sS'sadly'
p5738
I1
sS'pots'
p5739
I7
sS'maidens'
p5740
I6
sS'LORD'
p5741
I3461
sS'lovest'
p5742
I3
sS'Calcol'
p5743
I1
sS'pedigrees'
p5744
I1
sS'Bethshemite'
p5745
I2
sS'sixteenth'
p5746
I2
sS'Adullam'
p5747
I5
sS'Zedad'
p5748
I1
sS'Zorah'
p5749
I7
sS'loved'
p5750
I31
sS'Maaseiah'
p5751
I2
sS'slack'
p5752
I4
sS'Caleb'
p5753
I36
sS'Shelumiel'
p5754
I5
sS'calamity'
p5755
I2
sS'gropeth'
p5756
I1
sS'circumspect'
p5757
I1
sS'lover'
p5758
I1
sS'Abib'
p5759
I6
sS'visited'
p5760
I7
sS'Azaliah'
p5761
I1
sS'pardoned'
p5762
I1
sS'Pau'
p5763
I1
sS'Didst'
p5764
I1
sS'Berachah'
p5765
I1
sS'comfortable'
p5766
I1
sS'Strangers'
p5767
I2
sS'Abihu'
p5768
I12
sS'comfortably'
p5769
I1
sS'have'
p5770
I1023
sS'Kibrothhattaavah'
p5771
I5
sS'apparently'
p5772
I1
sS'sayings'
p5773
I3
sS'Oil'
p5774
I1
sS'Zethan'
p5775
I1
sS'Engannim'
p5776
I3
sS'provoked'
p5777
I17
sS'lodgings'
p5778
I1
sS'unless'
p5779
I3
sS'reigneth'
p5780
I4
sS'hazel'
p5781
I1
sS'Ramathite'
p5782
I1
sS'bakers'
p5783
I2
sS'Without'
p5784
I1
sS'eight'
p5785
I39
sS'Nebuzaradan'
p5786
I3
sS'Shelemiah'
p5787
I1
sS'wherewith'
p5788
I59
sS'gather'
p5789
I40
sS'Some'
p5790
I2
sS'disease'
p5791
I3
sS'Namely'
p5792
I3
sS'occasion'
p5793
I5
sS'Jezer'
p5794
I3
sS'planks'
p5795
I1
sS'slandered'
p5796
I1
sS'kite'
p5797
I2
sS'coucheth'
p5798
I1
sS'Erech'
p5799
I1
sS'Atarothadar'
p5800
I1
sS'rebuke'
p5801
I5
sS'thicket'
p5802
I1
sS'thicker'
p5803
I1
sS'handmaid'
p5804
I40
sS'staff'
p5805
I21
sS'knowledge'
p5806
I17
sS'Ben-hadad'
p5807
I2
sS'tithing'
p5808
I2
sS'prolong'
p5809
I8
sS'escapeth'
p5810
I2
sS'Jacob'
p5811
I223
sS'Jogli'
p5812
I1
sS'Hezrai'
p5813
I1
sS'beat'
p5814
I12
sS'stripes'
p5815
I3
sS'bear'
p5816
I90
sS'beam'
p5817
I8
sS'Ziphites'
p5818
I2
sS'organ'
p5819
I1
sS'whilst'
p5820
I1
sS'Elisheba'
p5821
I1
sS'rage'
p5822
I3
sS'Geber'
p5823
I2
sS'calling'
p5824
I1
sS'filleted'
p5825
I3
sS'Gallim'
p5826
I1
sS'redeemedst'
p5827
I1
sS'we'
p5828
I455
sS'refrained'
p5829
I1
sS'Boil'
p5830
I1
sS'valuest'
p5831
I1
sS'clearing'
p5832
I1
sS'Zephaniah'
p5833
I2
sS'bramble'
p5834
I3
sS'sorrow'
p5835
I10
sS'deliver'
p5836
I92
sS'Calneh'
p5837
I1
sS'Kedeshnaphtali'
p5838
I1
sS'wotteth'
p5839
I1
sS'Gatam'
p5840
I3
sS'asunder'
p5841
I4
sS'freely'
p5842
I3
sS'he)'
p5843
I1
sS'fulfilled'
p5844
I17
sS'swallow'
p5845
I4
sS'Ether'
p5846
I2
sS'glorious'
p5847
I5
sS'cornets'
p5848
I1
sS'Simeon'
p5849
I39
sS'Saph'
p5850
I1
sS'bleatings'
p5851
I1
sS'brook'
p5852
I25
sS'Bashemath'
p5853
I6
sS'beguiled'
p5854
I4
sS'laugh'
p5855
I4
sS'Etam'
p5856
I4
sS'Salmon'
p5857
I2
sS'Reign'
p5858
I1
sS'gaze'
p5859
I1
sS'Assir'
p5860
I5
sS'rump'
p5861
I5
sS'curtain'
p5862
I24
sS'Chislothtabor'
p5863
I1
sS'Jedaiah'
p5864
I3
sS'Ahimaaz'
p5865
I15
sS'ridden'
p5866
I1
sS'finished'
p5867
I18
sS'clusters'
p5868
I4
sS'devoureth'
p5869
I1
sS'homer'
p5870
I1
sS'divisions'
p5871
I9
sS'plain'
p5872
I49
sS'appearance'
p5873
I3
sS'value'
p5874
I3
sS'promoted'
p5875
I3
sS'carved'
p5876
I7
sS'file'
p5877
I1
sS'helper'
p5878
I1
sS'almost'
p5879
I1
sS'Esau'
p5880
I86
sS'helped'
p5881
I8
sS'tumbled'
p5882
I1
sS'Return'
p5883
I7
sS'Heth'
p5884
I14
sS'Hanoch'
p5885
I5
sS'Huppim'
p5886
I3
sS'boweth'
p5887
I1
sS'Spake'
p5888
I2
sS'Rehob'
p5889
I9
sS'twelfth'
p5890
I9
sS'cubit'
p5891
I28
sS'Chephirah'
p5892
I2
sS'Anab'
p5893
I2
sS'Howbeit'
p5894
I18
sS'hearest'
p5895
I3
sS'sisters'
p5896
I2
sS'subtil'
p5897
I2
sS'judgment'
p5898
I43
sS'Anak'
p5899
I9
sS'shamed'
p5900
I2
sS'numbered'
p5901
I114
sS'nevertheless'
p5902
I11
sS'Spring'
p5903
I1
sS'weapon'
p5904
I2
sS'chastisement'
p5905
I1
sS'thought'
p5906
I22
sS'exceedingly'
p5907
I13
sS'builded'
p5908
I15
sS'Adam'
p5909
I21
sS'Shilhi'
p5910
I1
sS'numbering'
p5911
I2
sS'Fourth'
p5912
I2
sS'Amad'
p5913
I1
sS'Ishmerai'
p5914
I1
sS'Amam'
p5915
I1
sS'Amal'
p5916
I1
sS'onward'
p5917
I1
sS'add'
p5918
I19
sS'fleshhooks'
p5919
I5
sS'Vashni'
p5920
I1
sS'reformed'
p5921
I1
sS'raven'
p5922
I3
sS'</DOC>'
p5923
I13
sS'footstool'
p5924
I1
sS'Eloth'
p5925
I1
sS'Jahzah'
p5926
I1
sS'like'
p5927
I128
sS'success'
p5928
I1
sS'Rachal'
p5929
I1
sS'Jarmuth'
p5930
I6
sS'Malchielites'
p5931
I1
sS'heed'
p5932
I26
sS'Fear'
p5933
I19
sS'works'
p5934
I22
sS'heel'
p5935
I2
sS'straightway'
p5936
I2
sS'Comfort'
p5937
I2
sS'ordinances'
p5938
I6
sS'Forty'
p5939
I2
sS'hail'
p5940
I17
sS'hair'
p5941
I35
sS'Jibsam'
p5942
I1
sS'convey'
p5943
I1
sS'proper'
p5944
I1
sS'Naarath'
p5945
I1
sS'Jasher'
p5946
I2
sS'Magdiel'
p5947
I2
sS'Asherites'
p5948
I1
sS'wittingly'
p5949
I1
sS'Bithron'
p5950
I1
sS'chains'
p5951
I14
sS'Ammonites'
p5952
I4
sS'noise'
p5953
I18
sS'Zemaraim'
p5954
I1
sS'pollute'
p5955
I2
sS'oiled'
p5956
I2
sS'host'
p5957
I148
sS'although'
p5958
I3
sS'worthy'
p5959
I11
sS'about'
p5960
I227
sS'socket'
p5961
I1
sS'Thummim'
p5962
I3
sS'certainty'
p5963
I2
sS'Haggiah'
p5964
I1
sS'blessings'
p5965
I7
sS'homeborn'
p5966
I1
sS'rendered'
p5967
I2
sS'faithfulness'
p5968
I1
sS'Two'
p5969
I7
sS'Achor'
p5970
I3
sS'slippeth'
p5971
I1
sS'female'
p5972
I21
sS'gleaned'
p5973
I6
sS'wheresoever'
p5974
I3
sS'houghed'
p5975
I3
sS'rushed'
p5976
I2
sS'Baasha'
p5977
I23
sS'reigned'
p5978
I126
sS'inasmuch'
p5979
I2
sS'slang'
p5980
I1
sS'Ishmaiah'
p5981
I1
sS'Zimri'
p5982
I14
sS'buy'
p5983
I25
sS'enchantment'
p5984
I2
sS'Girgasite'
p5985
I1
sS'but'
p5986
I572
sS'plague'
p5987
I85
sS'tiller'
p5988
I1
sS'Zobebah'
p5989
I1
sS'Tahtimhodshi'
p5990
I1
sS'Igeal'
p5991
I1
sS'Abelmizraim'
p5992
I1
sS'Girgashites'
p5993
I4
sS'wise'
p5994
I43
sS'princes'
p5995
I77
sS'glory'
p5996
I37
sS'Pirathonite'
p5997
I5
sS'Ramoth'
p5998
I7
sS'wist'
p5999
I7
sS'pin'
p6000
I2
sS'Hephzibah'
p6001
I1
sS'exceeded'
p6002
I2
sS'Shebna'
p6003
I4
sS'Arioch'
p6004
I2
sS'Hena'
p6005
I2
sS'Zaretan'
p6006
I1
sS'ambassadors'
p6007
I1
sS'cracknels'
p6008
I1
sS'pit'
p6009
I18
sS'dressed'
p6010
I6
sS'oak'
p6011
I11
sS'detain'
p6012
I2
sS'Know'
p6013
I10
sS'Kirjathaim'
p6014
I3
sS'uttermost'
p6015
I14
sS'draught'
p6016
I1
sS'bundle'
p6017
I2
sS'shrank'
p6018
I2
sS'Eliakim'
p6019
I5
sS'gloriously'
p6020
I2
sS'stirred'
p6021
I9
sS'baker'
p6022
I6
sS'Thus'
p6023
I124
sS'chapiters'
p6024
I15
sS'eateth'
p6025
I17
sS'baken'
p6026
I9
sS'Adonizedec'
p6027
I2
sS'Dathan'
p6028
I9
sS'Ziphron'
p6029
I1
sS'Leah'
p6030
I34
sS'Kerioth'
p6031
I1
sS'hath'
p6032
I721
sS'sleep'
p6033
I16
sS'hating'
p6034
I1
sS'evermore'
p6035
I4
sS'hate'
p6036
I20
sS'yonder'
p6037
I5
sS'muzzle'
p6038
I1
sS'weepest'
p6039
I1
sS'feeding'
p6040
I1
sS'hyssop'
p6041
I9
sS'founder'
p6042
I1
sS'(for'
p6043
I24
sS'poorest'
p6044
I1
sS'intreat'
p6045
I6
sS'Jushabhesed'
p6046
I1
sS'Gadites'
p6047
I14
sS'whatsoever'
p6048
I53
sS'under'
p6049
I149
sS'Obed'
p6050
I9
sS'pride'
p6051
I2
sS'merchant'
p6052
I1
sS'Jehudijah'
p6053
I1
sS'rise'
p6054
I27
sS'Jerusha'
p6055
I1
sS'every'
p6056
I451
sS'Joshbekashah'
p6057
I2
sS'conceive'
p6058
I7
sS'wards'
p6059
I2
sS'Ashan'
p6060
I4
sS'intendest'
p6061
I1
sS'guiding'
p6062
I1
sS'Go'
p6063
I132
sS'enjoy'
p6064
I6
sS'parted'
p6065
I3
sS'Moza'
p6066
I5
sS'strivings'
p6067
I1
sS'feathers'
p6068
I1
sS'direct'
p6069
I1
sS'nail'
p6070
I4
sS'compassed'
p6071
I18
sS'street'
p6072
I8
sS'creepeth'
p6073
I14
sS'shining'
p6074
I1
sS'blue'
p6075
I43
sS'Shilhim'
p6076
I1
sS'hide'
p6077
I28
sS'Hormah'
p6078
I9
sS'Ephraimite'
p6079
I1
sS'solemn'
p6080
I8
sS'beaten'
p6081
I24
sS'liberty'
p6082
I1
sS'fatness'
p6083
I4
sS'conduct'
p6084
I2
sS'Rephidim'
p6085
I5
sS'Jaanai'
p6086
I1
sS'kicked'
p6087
I1
sS'Anathoth'
p6088
I4
sS'Havilah'
p6089
I7
sS'Mizpah'
p6090
I4
sS'hundreds'
p6091
I22
sS'path'
p6092
I2
sS'stoodest'
p6093
I2
sS'bloomed'
p6094
I1
sS'leaves'
p6095
I3
sS'changed'
p6096
I10
sS'Gaddiel'
p6097
I1
sS'Rissah'
p6098
I2
sS'Sharar'
p6099
I1
sS'leaven'
p6100
I9
sS'changes'
p6101
I5
sS'punishment'
p6102
I4
sS'swearing'
p6103
I1
sS'straw'
p6104
I12
sS'erected'
p6105
I1
sS'sorrows'
p6106
I2
sS'Book'
p6107
I17
sS'Ahitub'
p6108
I13
sS'Zilpah'
p6109
I7
sS'Shunites'
p6110
I1
sS'Kirjathsepher'
p6111
I4
sS'would'
p6112
I121
sS'prophets'
p6113
I52
sS'chargers'
p6114
I1
sS'asses'
p6115
I48
sS'Sheariah'
p6116
I2
sS'preserved'
p6117
I7
sS'breathe'
p6118
I2
sS'Maacah'
p6119
I3
sS'grief'
p6120
I3
sS'crimson'
p6121
I3
sS'myrrh'
p6122
I3
sS'needeth'
p6123
I1
sS'Zareathites'
p6124
I1
sS'must'
p6125
I37
sS'abundance'
p6126
I19
sS'join'
p6127
I1
sS'chesnut'
p6128
I1
sS'Amalekite'
p6129
I3
sS'my'
p6130
I1198
sS'fortress'
p6131
I1
sS'quarrel'
p6132
I2
sS'defile'
p6133
I12
sS'Dagon'
p6134
I13
sS'loosed'
p6135
I4
sS'childless'
p6136
I5
sS'Pithon'
p6137
I2
sS'Lord'
p6138
I22
sS'keep'
p6139
I156
sS'end'
p6140
I93
sS'Harnepher'
p6141
I1
sS'Jordan'
p6142
I172
sS'Hoshama'
p6143
I1
sS'gate'
p6144
I80
sS'description'
p6145
I1
sS'mouths'
p6146
I3
sS'mess'
p6147
I2
sS'lump'
p6148
I1
sS'shewbread'
p6149
I11
sS'Carmites'
p6150
I1
sS'Meshullemeth'
p6151
I1
sS'acknowledged'
p6152
I1
sS'Immer'
p6153
I2
sS'Moabites'
p6154
I18
sS'environ'
p6155
I1
sS'enter'
p6156
I22
sS'aloud'
p6157
I3
sS'reproved'
p6158
I3
sS'compassing'
p6159
I3
sS'executed'
p6160
I6
sS'interpretation'
p6161
I6
sS'over'
p6162
I584
sS'Sechu'
p6163
I1
sS'sickle'
p6164
I2
sS'cherish'
p6165
I1
sS'oven'
p6166
I4
sS'clapped'
p6167
I1
sS'beside'
p6168
I77
sS'Remmonmethoar'
p6169
I1
sS'destroyer'
p6170
I2
sS'Putiel'
p6171
I1
sS'Here'
p6172
I15
sS'embalmed'
p6173
I3
sS'destroyed'
p6174
I81
sS'fade'
p6175
I1
sS'whips'
p6176
I2
sS'seatward'
p6177
I1
sS'diseases'
p6178
I3
sS'prevented'
p6179
I2
sS'diseased'
p6180
I1
sS'Zerahiah'
p6181
I3
sS'Ishuah'
p6182
I1
sS'Arodi'
p6183
I1
sS'JEHOVAH'
p6184
I1
sS'swarest'
p6185
I4
sS'victory'
p6186
I4
sS'each'
p6187
I35
sS'lasting'
p6188
I1
sS'Jerimoth'
p6189
I6
sS'Shaphan'
p6190
I10
sS'Shapham'
p6191
I1
sS'cloths'
p6192
I4
sS'Damascus'
p6193
I20
sS'hanged'
p6194
I11
sS'Othniel'
p6195
I7
sS'Shaphat'
p6196
I8
sS'sorcerers'
p6197
I1
sS'Hezekiah'
p6198
I47
sS'driving'
p6199
I4
sS'god'
p6200
I23
sS'washed'
p6201
I18
sS'Ashima'
p6202
I1
sS'horseman'
p6203
I1
sS'companies'
p6204
I10
sS'laid'
p6205
I81
sS'bonnets'
p6206
I4
sS'lain'
p6207
I3
sS'got'
p6208
I3
sS'newly'
p6209
I2
sS'Hold'
p6210
I1
sS'Zebulun'
p6211
I37
sS'Zaza'
p6212
I1
sS'wilily'
p6213
I1
sS'eternal'
p6214
I1
sS'free'
p6215
I15
sS'carcase'
p6216
I32
sS'whereupon'
p6217
I3
sS'rain'
p6218
I32
sS'Cabul'
p6219
I2
sS'fret'
p6220
I2
sS'days'
p6221
I356
sS'habitations'
p6222
I9
sS'Anamim'
p6223
I2
sS'Carry'
p6224
I4
sS'Eziongeber'
p6225
I2
sS'key'
p6226
I1
sS'rang'
p6227
I2
sS'already'
p6228
I1
sS'Prepare'
p6229
I2
sS'Nodab'
p6230
I1
sS'grisled'
p6231
I2
sS'rank'
p6232
I6
sS'hearing'
p6233
I3
sS'awoke'
p6234
I6
sS'Shamsherai'
p6235
I1
sS'Zelophehad'
p6236
I11
sS'Salchah'
p6237
I1
sS'top'
p6238
I56
sS'tow'
p6239
I1
sS'Zaphnathpaaneah'
p6240
I1
sS'too'
p6241
I35
sS'succoured'
p6242
I1
sS'bethink'
p6243
I1
sS'toe'
p6244
I6
sS'consented'
p6245
I1
sS'curtains'
p6246
I25
sS'ceiling'
p6247
I1
sS'Lebonah'
p6248
I1
sS'tool'
p6249
I4
sS'serve'
p6250
I106
sS'took'
p6251
I454
sS'Rohgah'
p6252
I1
sS'Jeush'
p6253
I7
sS'Dinhabah'
p6254
I2
sS'firebrands'
p6255
I1
sS'wardrobe'
p6256
I1
sS'cormorant'
p6257
I2
sS'abated'
p6258
I6
sS'Mishael'
p6259
I2
sS'Salma'
p6260
I4
sS'genealogies'
p6261
I4
sS'Mikloth'
p6262
I4
sS'flame'
p6263
I7
sS'mirth'
p6264
I1
sS'beard'
p6265
I9
sS'Achan'
p6266
I6
sS'fashion'
p6267
I5
sS'ran'
p6268
I32
sS'ram'
p6269
I74
sS'Mine'
p6270
I1
sS'talking'
p6271
I2
sS'Machbanai'
p6272
I1
sS'Achar'
p6273
I1
sS'Uzzielites'
p6274
I2
sS'thoroughly'
p6275
I3
sS'snow'
p6276
I4
sS'laughed'
p6277
I4
sS'cleft'
p6278
I1
sS'rider'
p6279
I3
sS'Zippor'
p6280
I7
sS'though'
p6281
I20
sS'passover'
p6282
I27
sS'plenty'
p6283
I6
sS'commanding'
p6284
I1
sS'Janoah'
p6285
I1
sS'prostitute'
p6286
I1
sS'mixt'
p6287
I1
sS'Ahohite'
p6288
I5
sS'partition'
p6289
I1
sS'forsook'
p6290
I10
sS'whomsoever'
p6291
I5
sS'Ahithophel'
p6292
I20
sS'swifter'
p6293
I1
sS'sanctuary'
p6294
I60
sS'abodest'
p6295
I1
sS'arrayed'
p6296
I2
sS'Jokdeam'
p6297
I1
sS'blemish)'
p6298
I1
sS'earth'
p6299
I288
sS'surety'
p6300
I5
sS'recompence'
p6301
I1
sS'Shachia'
p6302
I1
sS'Bid'
p6303
I1
sS'Michmash'
p6304
I7
sS'commandment'
p6305
I55
sS'censer'
p6306
I7
sS'lodge'
p6307
I11
sS'Bethshean'
p6308
I6
sS'borrowed'
p6309
I2
sS'Henoch'
p6310
I2
sS'watch'
p6311
I10
sS'shutting'
p6312
I1
sS'Jashubilehem'
p6313
I1
sS'report'
p6314
I7
sS'undressed'
p6315
I2
sS'Bohan'
p6316
I2
sS'countries'
p6317
I10
sS'beeves'
p6318
I7
sS'twice'
p6319
I7
sS'ossifrage'
p6320
I2
sS'thanks'
p6321
I6
sS'swept'
p6322
I1
sS'wrest'
p6323
I3
sS'Hiddai'
p6324
I1
sS'liquor'
p6325
I1
sS'(he'
p6326
I1
sS'Abide'
p6327
I3
sS'submitted'
p6328
I1
sS'crieth'
p6329
I2
sS'corrupt'
p6330
I5
sS'talebearer'
p6331
I1
sS'byword'
p6332
I2
sS'continually'
p6333
I24
sS'finger'
p6334
I19
sS'Ahira'
p6335
I5
sS'approach'
p6336
I11
sS'confusion'
p6337
I4
sS'weak'
p6338
I6
sS'devour'
p6339
I6
sS'wear'
p6340
I5
sS'dedication'
p6341
I2
sS'byways'
p6342
I1
sS'mule'
p6343
I7
sS'blasted'
p6344
I4
sS'Among'
p6345
I5
sS'goddess'
p6346
I2
sS'oughtest'
p6347
I1
sS'fault'
p6348
I4
sS'faces'
p6349
I24
sS'Iscah'
p6350
I1
sS'skill'
p6351
I3
sS'vexed'
p6352
I7
sS'unicorns'
p6353
I1
sS'Lamech'
p6354
I11
sS'Seemeth'
p6355
I2
sS'Regem'
p6356
I1
sS'leadeth'
p6357
I1
sS'trust'
p6358
I10
sS'Hamul'
p6359
I3
sS'Azriel'
p6360
I2
sS'Ishbak'
p6361
I2
sS'ropes'
p6362
I5
sS'Ishbah'
p6363
I1
sS'been'
p6364
I74
sS'quickly'
p6365
I20
sS'purposing'
p6366
I1
sS'bees'
p6367
I2
sS'Eladah'
p6368
I1
sS'psaltery'
p6369
I1
sS'captives'
p6370
I13
sS'loft'
p6371
I1
sS'Cry'
p6372
I1
sS'speeches'
p6373
I1
sS'Penuel'
p6374
I8
sS'catch'
p6375
I4
sS'Cain'
p6376
I17
sS'Adami'
p6377
I1
sS'Gad'
p6378
I66
sS'Elim'
p6379
I6
sS'reapers'
p6380
I7
sS'Jehozabad'
p6381
I2
sS'lesser'
p6382
I1
sS'Wash'
p6383
I2
sS'fallow'
p6384
I1
sS'parched'
p6385
I7
sS'leprosy'
p6386
I34
sS'Follow'
p6387
I1
sS'Kedar'
p6388
I2
sS'purifying'
p6389
I6
sS'leaneth'
p6390
I2
sS'broth'
p6391
I2
sS'Write'
p6392
I2
sS'Tell'
p6393
I11
sS'Golan'
p6394
I4
sS'unsavoury'
p6395
I1
sS'border'
p6396
I103
sS'wound'
p6397
I4
sS'forehead'
p6398
I8
sS'Pedahzur'
p6399
I5
sS'helve'
p6400
I1
sS'several'
p6401
I6
sS'lusty'
p6402
I1
sS'Admah'
p6403
I4
sS'hearth'
p6404
I1
sS'shortly'
p6405
I1
sS'bondmaids'
p6406
I2
sS'possessed'
p6407
I15
sS'Horites'
p6408
I3
sS'greatest'
p6409
I2
sS'detained'
p6410
I1
sS'mother'
p6411
I145
sS'hearts'
p6412
I25
sS'Hachilah'
p6413
I3
sS'Sarah'
p6414
I38
sS'Sarai'
p6415
I17
sS'assembling'
p6416
I1
sS'appease'
p6417
I1
sS'departed'
p6418
I106
sS'bruise'
p6419
I2
sS'Jeezer'
p6420
I1
sS'thumbs'
p6421
I3
sS'partridge'
p6422
I1
sS'depart'
p6423
I31
sS'collars'
p6424
I1
sS'Shenir'
p6425
I1
sS'gave'
p6426
I206
sS'casting'
p6427
I2
sS'Shumathites'
p6428
I1
sS'bands'
p6429
I14
sS'vulture'
p6430
I2
sS'outmost'
p6431
I3
sS'descending'
p6432
I1
sS'afore'
p6433
I1
sS'judge'
p6434
I43
sS'Shimea'
p6435
I4
sS'emptied'
p6436
I2
sS'burnt'
p6437
I272
sS'advanced'
p6438
I1
sS'apart'
p6439
I3
sS'layest'
p6440
I2
sS'gift'
p6441
I10
sS'zeal'
p6442
I3
sS'hunt'
p6443
I2
sS'Jashub'
p6444
I2
sS'offices'
p6445
I2
sS'officer'
p6446
I8
sS'Rephaim'
p6447
I5
sS'willows'
p6448
I1
sS'Again'
p6449
I5
sS'proudly'
p6450
I2
sS'Shimites'
p6451
I1
sS'displeasure'
p6452
I2
sS'escape'
p6453
I14
sS'advertise'
p6454
I2
sS'oppresseth'
p6455
I1
sS'Suah'
p6456
I1
sS'armed'
p6457
I22
sS'Hirah'
p6458
I2
sS'Hiram'
p6459
I23
sS'everything'
p6460
I2
sS'Lift'
p6461
I2
sS'loins'
p6462
I18
sS'Ho'
p6463
I1
sS'Doth'
p6464
I2
sS'He'
p6465
I109
sS'cord'
p6466
I1
sS'Chepharhaammonai'
p6467
I1
sS'corn'
p6468
I51
sS'spued'
p6469
I1
sS'lamps'
p6470
I24
sS'Ahlab'
p6471
I1
sS'Ahlai'
p6472
I2
sS'pygarg'
p6473
I1
sS'Abihud'
p6474
I1
sS'Gomer'
p6475
I4
sS'Joktan'
p6476
I6
sS'badgers'
p6477
I13
sS'duke'
p6478
I35
sS'vomiteth'
p6479
I1
sS'presence'
p6480
I40
sS'Nebat'
p6481
I21
sS'firepans'
p6482
I3
sS'uncleanness'
p6483
I24
sS'doorkeepers'
p6484
I2
sS'Cuthah'
p6485
I1
sS'Amen'
p6486
I15
sS'Gederoth'
p6487
I1
sS'Ahoah'
p6488
I1
sS'Hezir'
p6489
I1
sS'Break'
p6490
I1
sS'virgin'
p6491
I11
sS'fought'
p6492
I50
sS'Peleg'
p6493
I7
sS'naught'
p6494
I1
sS'Ramothgilead'
p6495
I11
sS'Abinoam'
p6496
I4
sS'Sodom'
p6497
I23
sS'Adullamite'
p6498
I3
sS'sycomore'
p6499
I3
sS'head'
p6500
I176
sS'visitation'
p6501
I1
sS'deny'
p6502
I2
sS'heat'
p6503
I8
sS'hear'
p6504
I95
sS'heap'
p6505
I17
sS'sustained'
p6506
I1
sS'removed'
p6507
I50
sS'camest'
p6508
I18
sS'counsel'
p6509
I32
sS'portions'
p6510
I3
sS'moveth'
p6511
I4
sS'altars'
p6512
I20
sS'drave'
p6513
I11
sS'fury'
p6514
I2
sS'sinful'
p6515
I1
sS'shined'
p6516
I1
sS'Abigail'
p6517
I17
sS'whereabout'
p6518
I1
sS'Nisroch'
p6519
I1
sS'defiledst'
p6520
I1
sS'Hodaviah'
p6521
I2
sS'willingly'
p6522
I10
sS'Shuhamites'
p6523
I2
sS'outstretched'
p6524
I1
sS'faithful'
p6525
I5
sS'no'
p6526
I355
sS'whereas'
p6527
I5
sS'when'
p6528
I938
sS'blesseth'
p6529
I3
sS'tin'
p6530
I1
sS'whet'
p6531
I1
sS'tie'
p6532
I1
sS'meetest'
p6533
I1
sS'congratulate'
p6534
I1
sS'Tekoite'
p6535
I3
sS'Earth'
p6536
I1
sS'younger'
p6537
I19
sS'Jahath'
p6538
I7
sS'longer'
p6539
I5
sS'sacks'
p6540
I10
sS'Pihahiroth'
p6541
I4
sS'withhold'
p6542
I2
sS'uncovered'
p6543
I8
sS'fasted'
p6544
I8
sS'Dumah'
p6545
I3
sS'menchildren'
p6546
I1
sS'fasten'
p6547
I3
sS'backward'
p6548
I6
sS'stacks'
p6549
I1
sS'companions'
p6550
I2
sS'Zoheth'
p6551
I1
sS'rob'
p6552
I3
sS'rod'
p6553
I38
sS'roe'
p6554
I1
sS'Avims'
p6555
I1
sS'rot'
p6556
I3
sS'discern'
p6557
I5
sS'Dan'
p6558
I63
sS'passage'
p6559
I3
sS'charge'
p6560
I55
sS'asking'
p6561
I2
sS'Ibleam'
p6562
I3
sS'honoured'
p6563
I1
sS'Day'
p6564
I1
sS'Whoso'
p6565
I3
sS'Elzaphan'
p6566
I2
sS'exalted'
p6567
I9
sS'fleece'
p6568
I8
sS'congregation'
p6569
I304
sS'cook'
p6570
I2
sS'cool'
p6571
I1
sS'clouds'
p6572
I5
sS'Arnan'
p6573
I1
sS'posts'
p6574
I10
sS'brother'
p6575
I232
sS'cloudy'
p6576
I2
sS'standards'
p6577
I3
sS'couched'
p6578
I2
sS'quick'
p6579
I3
sS'doeth'
p6580
I9
sS'heareth'
p6581
I9
sS'blasphemeth'
p6582
I2
sS'Reu'
p6583
I5
sS'invaded'
p6584
I4
sS'Rei'
p6585
I1
sS'dried'
p6586
I15
sS'lookingglasses'
p6587
I1
sS'bake'
p6588
I7
sS'tarried'
p6589
I17
sS'witchcrafts'
p6590
I1
sS'Abishag'
p6591
I5
sS'Abishai'
p6592
I25
sS'thereat'
p6593
I2
sS'Gozan'
p6594
I4
sS'bearers'
p6595
I1
sS'hairy'
p6596
I4
sS'nearer'
p6597
I1
sS'hairs'
p6598
I5
sS'water'
p6599
I223
sS'requited'
p6600
I2
sS'witch'
p6601
I2
sS'twentieth'
p6602
I18
sS'avenging'
p6603
I3
sS'commandeth'
p6604
I2
sS'Seer'
p6605
I1
sS'thirty'
p6606
I132
sS'expressly'
p6607
I1
sS'Halhul'
p6608
I1
sS'sittest'
p6609
I3
sS'Mattan'
p6610
I1
sS'descended'
p6611
I10
sS'cinnamon'
p6612
I1
sS'remaineth'
p6613
I18
sS'askest'
p6614
I1
sS'Said'
p6615
I1
sS'sevenfold'
p6616
I3
sS'besought'
p6617
I7
sS'Tekoah'
p6618
I3
sS'Obal'
p6619
I1
sS'Shammoth'
p6620
I1
sS'Therefore'
p6621
I86
sS'swallowed'
p6622
I6
sS'isles'
p6623
I1
sS'confounded'
p6624
I1
sS'lintel'
p6625
I3
sS'prey'
p6626
I22
sS'garnished'
p6627
I1
sS'Jahleel'
p6628
I2
sS'today'
p6629
I2
sS'Evi'
p6630
I2
sS'These'
p6631
I126
sS'altar'
p6632
I294
sS'Eve'
p6633
I2
sS'Asher'
p6634
I38
sS'Bethpalet'
p6635
I1
sS'Lebanon'
p6636
I27
sS'Harhas'
p6637
I1
sS'Ashkenaz'
p6638
I1
sS'Daberath'
p6639
I2
sS'ferry'
p6640
I1
sS'Absalom'
p6641
I106
sS'Hamulites'
p6642
I1
sS'nursing'
p6643
I1
sS'stream'
p6644
I1
sS'rebuking'
p6645
I1
sS'stroke'
p6646
I4
sS'joinings'
p6647
I1
sS'dropped'
p6648
I4
sS'garlick'
p6649
I1
sS'provoke'
p6650
I16
sS'Jaazaniah'
p6651
I1
sS'inheritance'
p6652
I166
sS'inclosed'
p6653
I3
sS'Concerning'
p6654
I5
sS'eloquent'
p6655
I1
sS'scarceness'
p6656
I1
sS'1'
p6657
I38
sS'alway'
p6658
I7
sS'fourth'
p6659
I49
sS'Mizpeh'
p6660
I23
sS'levy'
p6661
I6
sS'licketh'
p6662
I1
sS'Tubal'
p6663
I2
sS'eighty'
p6664
I3
sS'unawares'
p6665
I7
sS'birthday'
p6666
I1
sS'eighth'
p6667
I27
sS'Elonites'
p6668
I1
sS'Ashvath'
p6669
I1
sS'branches'
p6670
I23
sS'succeeded'
p6671
I3
sS'drinketh'
p6672
I2
sS'purification'
p6673
I2
sS'inform'
p6674
I1
sS'teacheth'
p6675
I1
sS'lamented'
p6676
I6
sS'acts'
p6677
I45
sS'furnished'
p6678
I1
sS'midnight'
p6679
I6
sS'snuffdishes'
p6680
I3
sS'Zif'
p6681
I2
sS'Bichri'
p6682
I8
sS'Arod'
p6683
I1
sS'Zia'
p6684
I1
sS'Zin'
p6685
I10
sS'worship'
p6686
I18
sS'Kemuel'
p6687
I3
sS'apes'
p6688
I1
sS'Rogelim'
p6689
I2
sS'guiltiness'
p6690
I1
sS'prisoners'
p6691
I3
sS'happened'
p6692
I3
sS'Ginath'
p6693
I2
sS'Bozez'
p6694
I1
sS'delighted'
p6695
I3
sS'underneath'
p6696
I3
sS'promisedst'
p6697
I2
sS'porters'
p6698
I13
sS'wagon'
p6699
I1
sS'execute'
p6700
I5
sS'name'
p6701
I419
sS'corners'
p6702
I21
sS'creature'
p6703
I10
sS'Beerlahairoi'
p6704
I1
sS'Zalmunna'
p6705
I11
sS'plant'
p6706
I8
sS'Ibnijah'
p6707
I1
sS'begun'
p6708
I4
sS'Save'
p6709
I6
sS'profit'
p6710
I3
sS'Ithamar'
p6711
I20
sS'Rephaims'
p6712
I2
sS'Zemira'
p6713
I1
sS'Hittite'
p6714
I24
sS'Throw'
p6715
I1
sS'eagle'
p6716
I6
sS'whereinto'
p6717
I2
sS'cloven'
p6718
I1
sS'Pelet'
p6719
I2
sS'Mijamin'
p6720
I1
sS'Belaites'
p6721
I1
sS'seekest'
p6722
I5
sS'turn'
p6723
I76
sS'place'
p6724
I332
sS'swine'
p6725
I2
sS'envied'
p6726
I3
sS'Touch'
p6727
I1
sS'deceived'
p6728
I6
sS'childhood'
p6729
I1
sS'Speak'
p6730
I55
sS'pelican'
p6731
I2
sS'feign'
p6732
I2
sS'fetched'
p6733
I15
sS'Arkite'
p6734
I2
sS'Chenaniah'
p6735
I3
sS'Amalek'
p6736
I23
sS'knoweth'
p6737
I12
sS'Shihorlibnath'
p6738
I1
sS'Gibeah'
p6739
I42
sS'Shage'
p6740
I1
sS'array'
p6741
I20
sS'Telaim'
p6742
I1
sS'millions'
p6743
I1
sS'forbad'
p6744
I1
sS'given'
p6745
I173
sS'stuck'
p6746
I1
sS'bolt'
p6747
I1
sS'inclosings'
p6748
I2
sS'Elishah'
p6749
I2
sS'white'
p6750
I30
sS'Jalon'
p6751
I1
sS'seduced'
p6752
I1
sS'Keeping'
p6753
I1
sS'season'
p6754
I16
sS'refuse'
p6755
I8
sS'Baalzebub'
p6756
I4
sS'girded'
p6757
I17
sS'kindreds'
p6758
I1
sS'copy'
p6759
I2
sS'wide'
p6760
I3
sS'Love'
p6761
I1
sS'Zurishaddai'
p6762
I5
sS'require'
p6763
I15
sS'Meraioth'
p6764
I4
sS'Zelzah'
p6765
I1
sS'mindful'
p6766
I1
sS'Gilonite'
p6767
I2
sS'oath'
p6768
I31
sS'powder'
p6769
I5
sS'and'
p6770
I16854
sS'rend'
p6771
I8
sS'Tarshish'
p6772
I2
sS'Shallum'
p6773
I16
sS'rent'
p6774
I40
sS'fetcheth'
p6775
I1
sS'any'
p6776
I412
sS'Hammon'
p6777
I2
sS'prosperity'
p6778
I3
sS'righteously'
p6779
I1
sS'wandered'
p6780
I2
sS'Aholiab'
p6781
I5
sS'heal'
p6782
I3
sS'sure'
p6783
I11
sS'Jephunneh'
p6784
I16
sS'adversities'
p6785
I1
sS'GOD'
p6786
I10
sS'multiply'
p6787
I35
sS'Kadmonites'
p6788
I1
sS'Ahimelech'
p6789
I16
sS'Whoever'
p6790
I1
sS'considered'
p6791
I2
sS'hungry'
p6792
I3
sS'Ekron'
p6793
I17
sS'glutton'
p6794
I1
sS'Bethbarah'
p6795
I2
sS'uncle'
p6796
I10
sS'Ashdod'
p6797
I10
sS'infant'
p6798
I1
sS'breaketh'
p6799
I1
sS'trespass'
p6800
I57
sS'Shuthalhites'
p6801
I1
sS'ariseth'
p6802
I1
sS'state'
p6803
I1
sS'woof'
p6804
I9
sS'wood'
p6805
I95
sS'wool'
p6806
I2
sS'lighted'
p6807
I10
sS'Cozbi'
p6808
I2
sS'Pelethites'
p6809
I7
sS'lighten'
p6810
I2
sS'mortally'
p6811
I1
sS'lighter'
p6812
I3
sS'Pagiel'
p6813
I5
sS'savoury'
p6814
I6
sS'Eleazar'
p6815
I68
sS'treachery'
p6816
I1
sS'floods'
p6817
I2
sS'workman'
p6818
I2
sS'fainted'
p6819
I2
sS'Abida'
p6820
I1
sS'naked'
p6821
I7
sS'Verily'
p6822
I3
sS'bekah'
p6823
I1
sS'through'
p6824
I108
sS'Emins'
p6825
I1
sS'Urim'
p6826
I5
sS'Sabtah'
p6827
I1
sS'college'
p6828
I1
sS'encouraged'
p6829
I2
sS'voluntary'
p6830
I2
sS'crooked'
p6831
I1
sS'Loose'
p6832
I1
sS'weapons'
p6833
I9
sS'Elihoreph'
p6834
I1
sS'outside'
p6835
I4
sS'seers'
p6836
I1
sS'hiss'
p6837
I1
sS'buildest'
p6838
I1
sS'Tilgathpilneser'
p6839
I2
sS'multiplied'
p6840
I11
sS'Gesham'
p6841
I1
sS'cities'
p6842
I250
sS'come'
p6843
I596
sS'grieved'
p6844
I13
sS'Arnon'
p6845
I23
sS'region'
p6846
I5
sS'priests'
p6847
I127
sS'quiet'
p6848
I5
sS'Parvaim'
p6849
I1
sS'duty'
p6850
I3
sS'afterwards'
p6851
I4
sS'Nebo'
p6852
I6
sS'bricks'
p6853
I3
sS'pot'
p6854
I10
sS'satisfaction'
p6855
I2
sS'pole'
p6856
I2
sS'poll'
p6857
I1
sS'beareth'
p6858
I9
sS'Buy'
p6859
I2
sS'But'
p6860
I439
sS'Parbar'
p6861
I2
sS'Bul'
p6862
I1
sS'Sidonians'
p6863
I5
sS'cords'
p6864
I8
sS'hardly'
p6865
I2
sS'vilely'
p6866
I1
sS'direction'
p6867
I1
sS'robbed'
p6868
I2
sS'blessing'
p6869
I33
sS'mocking'
p6870
I1
sS'concubine'
p6871
I22
sS'Accad'
p6872
I1
sS'careful'
p6873
I1
sS'spirit'
p6874
I49
sS'case'
p6875
I4
sS'shaft'
p6876
I3
sS'myself'
p6877
I19
sS'Divide'
p6878
I1
sS'mount'
p6879
I180
sS'fiercer'
p6880
I1
sS'cast'
p6881
I110
sS'Philistim'
p6882
I1
sS'Hazeroth'
p6883
I6
sS'Open'
p6884
I2
sS'overtaketh'
p6885
I1
sS'life)'
p6886
I1
sS'Abiezrites'
p6887
I2
sS'coupled'
p6888
I11
sS'prayer'
p6889
I11
sS'Rakkon'
p6890
I1
sS'affrighted'
p6891
I1
sS'pertaineth'
p6892
I5
sS'treacherously'
p6893
I1
sS'helmet'
p6894
I2
sS'freewill'
p6895
I10
sS'bowl'
p6896
I14
sS'Marah'
p6897
I5
sS'Eliada'
p6898
I2
sS'bows'
p6899
I2
sS'Maachathites'
p6900
I4
sS'parlours'
p6901
I1
sS'week'
p6902
I2
sS'barefoot'
p6903
I1
sS'booths'
p6904
I4
sS'Machbenah'
p6905
I1
sS'nest'
p6906
I3
sS'Hodaiah'
p6907
I1
sS'driver'
p6908
I1
sS'Jachan'
p6909
I1
sS'driven'
p6910
I9
sS'persons'
p6911
I25
sS'fowls'
p6912
I16
sS'lamentation'
p6913
I2
sS'arose'
p6914
I100
sS'persecuted'
p6915
I1
sS'changing'
p6916
I1
sS'weep'
p6917
I8
sS'Pathrusim'
p6918
I2
sS'Jeshebeab'
p6919
I1
sS'obeyed'
p6920
I13
sS'estimation'
p6921
I23
sS'sinned'
p6922
I55
sS'Is'
p6923
I62
sS'Ir'
p6924
I1
sS'It'
p6925
I62
sS'without'
p6926
I119
sS'In'
p6927
I92
sS'reward'
p6928
I11
sS'bodies'
p6929
I3
sS'justify'
p6930
I2
sS'desolate'
p6931
I8
sS'Nahbi'
p6932
I1
sS'tip'
p6933
I8
sS'guided'
p6934
I1
sS'Jahdiel'
p6935
I1
sS'Tabbath'
p6936
I1
sS'ninth'
p6937
I12
sS'stiffnecked'
p6938
I7
sS'violent'
p6939
I1
sS'cease'
p6940
I10
sS'kneeling'
p6941
I1
sS'blow'
p6942
I17
sS'blot'
p6943
I7
sS'gentleness'
p6944
I1
sS'rose'
p6945
I84
sS'except'
p6946
I14
sS'Gittaim'
p6947
I1
sS'hind'
p6948
I1
sS'Shephatiah'
p6949
I4
sS'kingdom'
p6950
I70
sS'Kenezite'
p6951
I3
sS'sixscore'
p6952
I1
sS'Jashubites'
p6953
I1
sS'avengeth'
p6954
I1
sS'Solomon'
p6955
I217
sS'findeth'
p6956
I1
sS'accepted'
p6957
I14
sS'Talk'
p6958
I1
sS'furniture'
p6959
I7
sS'bracelet'
p6960
I1
sS'Something'
p6961
I1
sS'tower'
p6962
I18
sS'burdens'
p6963
I13
sS'Since'
p6964
I2
sS'Reuben'
p6965
I70
sS'Besor'
p6966
I3
sS'vowedst'
p6967
I1
sS'respect'
p6968
I10
sS'Destroy'
p6969
I2
sS'redeeming'
p6970
I1
sS'provided'
p6971
I5
sS'moon'
p6972
I10
sS'imputed'
p6973
I2
sS'Hebronites'
p6974
I6
sS'Shunammite'
p6975
I8
sS'porter'
p6976
I3
sS'severed'
p6977
I3
sS'quit'
p6978
I5
sS'nails'
p6979
I3
sS'slaughter'
p6980
I18
sS'Eranites'
p6981
I1
sS'parteth'
p6982
I2
sS'Hezro'
p6983
I1
sS'Rock'
p6984
I6
sS'on'
p6985
I891
sS'subdued'
p6986
I15
sS'zealous'
p6987
I2
sS'of'
p6988
I15443
sS'whence'
p6989
I17
sS'stand'
p6990
I77
sS'ox'
p6991
I45
sS'stank'
p6992
I4
sS'Letushim'
p6993
I1
sS'or'
p6994
I501
sS'leddest'
p6995
I2
sS'tribe'
p6996
I219
sS'ladies'
p6997
I1
sS'curses'
p6998
I7
sS'instruments'
p6999
I29
sS'comforters'
p7000
I2
sS'cursed'
p7001
I28
sS'rising'
p7002
I9
sS'determine'
p7003
I1
sS'killedst'
p7004
I2
sS'Jamin'
p7005
I5
sS'tillest'
p7006
I1
sS'whales'
p7007
I1
sS'there'
p7008
I874
sS'Topheth'
p7009
I1
sS'Amramites'
p7010
I2
sS'house'
p7011
I956
sS'valley'
p7012
I77
sS'fish'
p7013
I7
sS'mischief'
p7014
I12
sS'Remember'
p7015
I10
sS'shamelessly'
p7016
I1
sS'regard'
p7017
I7
sS'amongst'
p7018
I2
sS'heardest'
p7019
I3
sS'Benaiah'
p7020
I34
sS'Kishi'
p7021
I1
sS'rouse'
p7022
I1
sS'Benzoheth'
p7023
I1
sS'Boaz'
p7024
I24
sS'Serug'
p7025
I5
sS'grass'
p7026
I10
sS'creeping'
p7027
I20
sS'castles'
p7028
I4
sS'Garmite'
p7029
I1
sS'Baalperazim'
p7030
I4
sS'taste'
p7031
I6
sS'Punon'
p7032
I2
sS'Gilboa'
p7033
I8
sS'appertained'
p7034
I2
sS'Eltekon'
p7035
I1
sS'stumbled'
p7036
I2
sS'Anim'
p7037
I1
sS'scribe'
p7038
I15
sS'discerned'
p7039
I2
sS'compel'
p7040
I1
sS'longed'
p7041
I3
sS'5'
p7042
I24
sS'heathen'
p7043
I14
sS'Dara'
p7044
I1
sS'dismayed'
p7045
I8
sS'Cainan'
p7046
I5
sS'requested'
p7047
I3
sS'Bashan'
p7048
I42
sS'separate'
p7049
I14
sS'spoilers'
p7050
I4
sS'flower'
p7051
I5
sS'Testimony'
p7052
I1
sS'Hattush'
p7053
I1
sS'brass'
p7054
I84
sS'Hasten'
p7055
I1
sS'Puhites'
p7056
I1
sS'wife'
p7057
I275
sS'Mahol'
p7058
I1
sS'treason'
p7059
I1
sS'apparel'
p7060
I6
sS'Remmon'
p7061
I1
sS'all'
p7062
I2393
sS'lace'
p7063
I4
sS'Bidkar'
p7064
I1
sS'Stretch'
p7065
I7
sS'tarry'
p7066
I22
sS'executing'
p7067
I1
sS'smoking'
p7068
I2
sS'dish'
p7069
I2
sS'follow'
p7070
I22
sS'Bechorath'
p7071
I1
sS'Sorek'
p7072
I1
sS'Hoglah'
p7073
I4
sS'Jeshuah'
p7074
I1
sS'belonging'
p7075
I3
sS'woman'
p7076
I190
sS'worse'
p7077
I6
sS'song'
p7078
I16
sS'far'
p7079
I30
sS'fat'
p7080
I85
sS'oblation'
p7081
I11
sS'sons'
p7082
I829
sS'hems'
p7083
I1
sS'soles'
p7084
I4
sS'Careah'
p7085
I1
sS'Joshua'
p7086
I206
sS'Adbeel'
p7087
I2
sS'Binding'
p7088
I1
sS'prolonged'
p7089
I2
sS'trench'
p7090
I7
sS'wilt'
p7091
I81
sS'undone'
p7092
I2
sS'salute'
p7093
I7
sS'liars'
p7094
I1
sS'threshing'
p7095
I5
sS'ten'
p7096
I146
sS'Adamah'
p7097
I1
sS'rate'
p7098
I3
sS'Haruphite'
p7099
I1
sS'cheeses'
p7100
I1
sS'what'
p7101
I165
sS'sun'
p7102
I43
sS'sum'
p7103
I14
sS'Eznite'
p7104
I1
sS'Jeiel'
p7105
I5
sS'Ahiramites'
p7106
I1
sS'row'
p7107
I15
sS'cruse'
p7108
I9
sS'multitude'
p7109
I35
sS'womb'
p7110
I17
sS'Rabbah'
p7111
I9
sS'toes'
p7112
I5
sS'Gadi'
p7113
I2
sS'Zelek'
p7114
I2
sS'reacheth'
p7115
I6
sS'behaviour'
p7116
I1
sS'Ithrites'
p7117
I1
sS'Elimelech'
p7118
I6
sS'consecrations'
p7119
I4
sS'heifer'
p7120
I13
sS'cucumbers'
p7121
I1
sS'Othni'
p7122
I1
sS'Eglah'
p7123
I2
sS'suddenly'
p7124
I7
sS'commandments'
p7125
I85
sS'Tou'
p7126
I2
sS'Toi'
p7127
I3
sS'Tob'
p7128
I2
sS'Truly'
p7129
I1
sS'sprinkleth'
p7130
I2
sS'Lahad'
p7131
I1
sS'proceed'
p7132
I3
sS'faint'
p7133
I15
sS'horses'
p7134
I43
sS'flat'
p7135
I4
sS'Ader'
p7136
I1
sS'thus'
p7137
I74
sS'waxed'
p7138
I18
sS'flay'
p7139
I1
sS'flax'
p7140
I4
sS'Mash'
p7141
I1
sS'Shimeath'
p7142
I1
sS'Zillah'
p7143
I3
sS'stick'
p7144
I1
sS'known'
p7145
I39
sS'glad'
p7146
I5
sS'presumed'
p7147
I1
sS'wrestled'
p7148
I3
sS'parable'
p7149
I7
sS'Sansannah'
p7150
I1
sS'plea'
p7151
I2
sS'Ed'
p7152
I1
sS'tabernacles'
p7153
I5
sS'Shimri'
p7154
I2
sS'Selahammahlekoth'
p7155
I1
sS'division'
p7156
I1
sS'Izrahiah'
p7157
I2
sS'joints'
p7158
I1
sS'smotest'
p7159
I1
sS'whoredoms'
p7160
I2
sS'Mahalath'
p7161
I1
sS'Gittites'
p7162
I2
sS'Jaroah'
p7163
I1
sS'sunrising'
p7164
I10
sS'court'
p7165
I48
sS'ordinance'
p7166
I19
sS'breaking'
p7167
I5
sS'goad'
p7168
I1
sS'cleansing'
p7169
I7
sS'feareth'
p7170
I1
sS'Mishmannah'
p7171
I1
sS'goat'
p7172
I29
sS'Ishmael'
p7173
I24
sS'simplicity'
p7174
I1
sS'Peor'
p7175
I5
sS'embalm'
p7176
I1
sS'pertained'
p7177
I15
sS'adventure'
p7178
I1
sS'Misrephothmaim'
p7179
I2
sS'proclaimed'
p7180
I8
sS'Nethaniah'
p7181
I4
sS'short'
p7182
I2
sS'Seas'
p7183
I1
sS'Assyria'
p7184
I53
sS'caul'
p7185
I11
sS'shore'
p7186
I8
sS'bringers'
p7187
I1
sS'Ramath'
p7188
I1
sS'forgiving'
p7189
I2
sS'Eshton'
p7190
I2
sS'thirtieth'
p7191
I3
sS'Sharuhen'
p7192
I1
sS'Eliel'
p7193
I9
sS'pray'
p7194
I184
sS'inward'
p7195
I7
sS'Sibbecai'
p7196
I2
sS'Jeziel'
p7197
I1
sS'strange'
p7198
I20
sS'threescore'
p7199
I54
sS'Hast'
p7200
I9
sS'might'
p7201
I107
sS'alter'
p7202
I1
sS'return'
p7203
I80
sS'sucking'
p7204
I2
sS'hunter'
p7205
I3
sS'Anetothite'
p7206
I1
sS'sighed'
p7207
I1
sS'Maharai'
p7208
I3
sS'Eri'
p7209
I2
sS'nephews'
p7210
I1
sS'delicate'
p7211
I2
sS'Ram'
p7212
I6
sS'refresh'
p7213
I1
sS'Nibshan'
p7214
I1
sS'Ethan'
p7215
I7
sS'roebuck'
p7216
I4
sS'eunuchs'
p7217
I2
sS'weight'
p7218
I43
sS'generation'
p7219
I23
sS'secret'
p7220
I7
sS'oppressed'
p7221
I11
sS'forbeareth'
p7222
I1
sS'Joseph'
p7223
I199
sS'loops'
p7224
I13
sS'Jogbehah'
p7225
I2
sS'stilled'
p7226
I1
sS'Middin'
p7227
I1
sS'Tilon'
p7228
I1
sS'Samuel'
p7229
I138
sS'Dibon'
p7230
I5
sS'health'
p7231
I2
sS'hearken'
p7232
I64
sS'Melech'
p7233
I2
sS'Eliezer'
p7234
I9
sS'Enviest'
p7235
I1
sS'forgive'
p7236
I13
sS'Jehovahnissi'
p7237
I1
sS'teach'
p7238
I26
sS'Male'
p7239
I1
sS'Baalah'
p7240
I5
sS'Hanun'
p7241
I9
sS'thrown'
p7242
I6
sS'occurrent'
p7243
I1
sS'Rebekah'
p7244
I30
sS'thread'
p7245
I6
sS'leprous'
p7246
I5
sS'Enam'
p7247
I1
sS'tributaries'
p7248
I4
sS'Jezreelitess'
p7249
I5
sS'circuit'
p7250
I1
sS'Pass'
p7251
I4
sS'Elon'
p7252
I7
sS'fallen'
p7253
I24
sS'feed'
p7254
I16
sS'Shaveh'
p7255
I2
sS'dine'
p7256
I1
sS'feel'
p7257
I3
sS'(their'
p7258
I1
sS'prophesied'
p7259
I15
sS'Arelites'
p7260
I1
sS'feet'
p7261
I76
sS'Ramathaimzophim'
p7262
I1
sS'enlarged'
p7263
I2
sS'Timnah'
p7264
I4
sS'wench'
p7265
I1
sS'Sinai'
p7266
I32
sS'scourges'
p7267
I1
sS'aileth'
p7268
I6
sS'Jorai'
p7269
I1
sS'coasts'
p7270
I28
sS'Sharonite'
p7271
I1
sS'Joram'
p7272
I25
sS'stork'
p7273
I2
sS'swarm'
p7274
I3
sS'passed'
p7275
I91
sS'sware'
p7276
I63
sS'store'
p7277
I11
sS'temptations'
p7278
I3
sS'censers'
p7279
I8
sS'Imlah'
p7280
I2
sS'treasures'
p7281
I22
sS'stumblingblock'
p7282
I1
sS'king'
p7283
I1278
sS'kind'
p7284
I32
sS'kine'
p7285
I23
sS'Shechem'
p7286
I59
sS'Whosoever'
p7287
I16
sS'vial'
p7288
I1
sS'double'
p7289
I11
sS'Eziongaber'
p7290
I3
sS'Nun'
p7291
I28
sS'cost'
p7292
I3
sS'stalk'
p7293
I2
sS'tongues'
p7294
I2
sS'Olivet'
p7295
I1
sS'strengthen'
p7296
I3
sS'dainties'
p7297
I1
sS'overran'
p7298
I1
sS'alike'
p7299
I3
sS'gall'
p7300
I2
sS'Hukok'
p7301
I1
sS'Eastward'
p7302
I1
sS'barnfloor'
p7303
I1
sS'nights'
p7304
I11
sS'moist'
p7305
I1
sS'Red'
p7306
I19
sS'finding'
p7307
I1
sS'populous'
p7308
I1
sS'hurling'
p7309
I1
sS'Meshobab'
p7310
I1
sS'added'
p7311
I2
sS'reckon'
p7312
I4
sS'measures'
p7313
I17
sS'reach'
p7314
I7
sS'adder'
p7315
I1
sS'nothing'
p7316
I42
sS'seasons'
p7317
I4
sS'measured'
p7318
I3
sS'Restore'
p7319
I1
sS'Karkaa'
p7320
I1
sS'windows'
p7321
I7
sS'Zer'
p7322
I1
sS'Shaaph'
p7323
I2
sS'Japhleti'
p7324
I1
sS'lying'
p7325
I13
sS'stones'
p7326
I105
sS'Haahashtari'
p7327
I1
sS'journeys'
p7328
I9
sS'wayside'
p7329
I1
sS'Gilead'
p7330
I85
sS'stoned'
p7331
I11
sS'Izehar'
p7332
I1
sS'stubble'
p7333
I2
sS'seedtime'
p7334
I1
sS'Honour'
p7335
I2
sS'camel'
p7336
I5
sS'Atad'
p7337
I2
sS'abiding'
p7338
I5
sS'betray'
p7339
I1
sS'Je'
p7340
I1
sS'hip'
p7341
I1
sS'shepherd'
p7342
I5
sS'his'
p7343
I3889
sS'hit'
p7344
I2
sS'hid'
p7345
I39
sS'Both'
p7346
I5
sS'beards'
p7347
I3
sS'him'
p7348
I2532
sS'hin'
p7349
I16
sS'engraver'
p7350
I3
sS'amounting'
p7351
I1
sS'wroth'
p7352
I22
sS'Zetham'
p7353
I2
sS'activity'
p7354
I1
sS'wrote'
p7355
I21
sS'suckling'
p7356
I2
sS'art'
p7357
I129
sS'Jehovahjireh'
p7358
I1
sS'dumb'
p7359
I1
sS'are'
p7360
I642
sS'thistle'
p7361
I2
sS'chambers'
p7362
I9
sS'ark'
p7363
I219
sS'arm'
p7364
I14
sS'emerods'
p7365
I8
sS'Jubal'
p7366
I1
sS'milch'
p7367
I3
sS'Canaanites'
p7368
I51
sS'sanctuaries'
p7369
I2
sS'slaying'
p7370
I4
sS'Micah'
p7371
I28
sS'(Beforetime'
p7372
I1
sS'sold'
p7373
I39
sS'sole'
p7374
I7
sS'Janum'
p7375
I1
sS'succeed'
p7376
I1
sS'answereth'
p7377
I2
sS'liquors'
p7378
I1
sS'oversee'
p7379
I2
sS'Tidings'
p7380
I1
sS'Tabernacle'
p7381
I1
sS'Nedabiah'
p7382
I1
sS'became'
p7383
I60
sS'Moreh'
p7384
I3
sS'Shaulites'
p7385
I1
sS'flies'
p7386
I7
sS'distress'
p7387
I10
sS'sweet'
p7388
I58
sS'whelp'
p7389
I2
sS'Ithnan'
p7390
I1
sS'weasel'
p7391
I1
sS'goats'
p7392
I67
sS'meteyard'
p7393
I1
sS'bolster'
p7394
I6
sS'decline'
p7395
I2
sS'Laadan'
p7396
I7
sS'due'
p7397
I11
sS'Laadah'
p7398
I1
sS'whom'
p7399
I212
sS'Betharabah'
p7400
I3
sS'brick'
p7401
I6
sS'flight'
p7402
I3
sS'Aphses'
p7403
I1
sS'Korahite'
p7404
I1
sS'flinty'
p7405
I1
sS'Neariah'
p7406
I3
sS'goodly'
p7407
I16
sS'plants'
p7408
I1
sS'stolen'
p7409
I13
sS'Kinah'
p7410
I1
sS'boast'
p7411
I1
sS'workmen'
p7412
I5
sS'By'
p7413
I12
sS'Salem'
p7414
I1
sS'licked'
p7415
I3
sS'Tahan'
p7416
I2
sS'sendeth'
p7417
I2
sS'guilty'
p7418
I16
sS'rip'
p7419
I1
sS'lodged'
p7420
I12
sS'Caphtorims'
p7421
I1
sS'rid'
p7422
I3
sS'rie'
p7423
I1
sS'anguish'
p7424
I4
sS'filledst'
p7425
I1
sS'Lotan'
p7426
I7
sS'esteemed'
p7427
I3
sS'advise'
p7428
I3
sS'spears'
p7429
I2
sS'daughters'
p7430
I136
sS'higher'
p7431
I4
sS'About'
p7432
I3
sS'mountain'
p7433
I46
sS'restraint'
p7434
I1
sS'Coz'
p7435
I1
sS'Zaavan'
p7436
I1
sS'moving'
p7437
I2
sS'Kiriathaim'
p7438
I1
sS'Abiezrite'
p7439
I1
sS'lower'
p7440
I5
sS'solemnity'
p7441
I1
sS'Seek'
p7442
I2
sS'cheek'
p7443
I1
sS'magnified'
p7444
I6
sS'cheer'
p7445
I1
sS'edge'
p7446
I45
sS'pigeons'
p7447
I9
sS'questions'
p7448
I2
sS'Azzah'
p7449
I2
sS'prince'
p7450
I35
sS'meanest'
p7451
I2
sS'tables'
p7452
I37
sS'Mahath'
p7453
I1
sS'workers'
p7454
I2
sS'speedily'
p7455
I3
sS'Baaseiah'
p7456
I1
sS'shovels'
p7457
I8
sS'complaint'
p7458
I1
sS'Glory'
p7459
I3
sS'Thou'
p7460
I202
sS'Arieh'
p7461
I1
sS'awaked'
p7462
I5
sS'fulness'
p7463
I3
sS'entangled'
p7464
I1
sS'loatheth'
p7465
I1
sS'soundeth'
p7466
I1
sS'Machirites'
p7467
I1
sS'uproar'
p7468
I1
sS'entice'
p7469
I2
sS'Eshean'
p7470
I1
sS'engravings'
p7471
I5
sS'Huldah'
p7472
I1
sS'understood'
p7473
I5
sS'Jerah'
p7474
I2
sS'Nophah'
p7475
I1
sS'selvedge'
p7476
I2
sS'conversant'
p7477
I2
sS'sacrificeth'
p7478
I1
sS'plat'
p7479
I2
sS'Genubath'
p7480
I2
sS'sawest'
p7481
I4
sS'mingled'
p7482
I40
sS'Mahlites'
p7483
I2
sS'Jada'
p7484
I2
sS'stricken'
p7485
I8
sS'adversity'
p7486
I1
sS'hatred'
p7487
I2
sS'lendeth'
p7488
I1
sS'Kirjathbaal'
p7489
I2
sS'vagabond'
p7490
I2
sS'fleeth'
p7491
I1
sS'Cushi'
p7492
I8
sS'rows'
p7493
I13
sS'Ibri'
p7494
I1
sS'Maachathi'
p7495
I1
sS'fast'
p7496
I12
sS'Every'
p7497
I22
sS'Chelub'
p7498
I2
sS'wonderfully'
p7499
I1
sS'Rehabiah'
p7500
I5
sS'mountains'
p7501
I35
sS'Hinnom'
p7502
I5
sS'raisins'
p7503
I4
sS'cloth'
p7504
I12
sS'upright'
p7505
I7
sS'usury'
p7506
I10
sS'Anammelech'
p7507
I1
sS'Bela'
p7508
I13
sS'Elam'
p7509
I6
sS'Elah'
p7510
I17
sS'Died'
p7511
I1
sS'fried'
p7512
I2
sS'called'
p7513
I280
sS'shewest'
p7514
I1
sS'roared'
p7515
I1
sS'Enquire'
p7516
I2
sS'home'
p7517
I26
sS'Jonathan'
p7518
I111
sS'Zoba'
p7519
I2
sS'evils'
p7520
I4
sS'peace'
p7521
I161
sS'backs'
p7522
I4
sS'Eliphelet'
p7523
I4
sS'seething'
p7524
I1
sS'Asenath'
p7525
I3
sS'mock'
p7526
I2
sS'dale'
p7527
I2
sS'smitten'
p7528
I38
sS'backbone'
p7529
I1
sS'breasts'
p7530
I3
sS'Sibboleth'
p7531
I1
sS'Shiphmite'
p7532
I1
sS'Zair'
p7533
I1
sS'Heman'
p7534
I14
sS'potters'
p7535
I1
sS'overlay'
p7536
I13
sS'Kanah'
p7537
I3
sS'plantedst'
p7538
I1
sS'Amram'
p7539
I14
sS'weights'
p7540
I2
sS'joining'
p7541
I1
sS'Alush'
p7542
I2
sS'once'
p7543
I18
sS'pervert'
p7544
I2
sS'Assyrians'
p7545
I1
sS'hooks'
p7546
I13
sS'alien'
p7547
I2
sS'Abiathar'
p7548
I30
sS'Ishui'
p7549
I1
sS'Michal'
p7550
I18
sS'kinsfolks'
p7551
I2
sS'fenced'
p7552
I17
sS'obstinate'
p7553
I1
sS'Abital'
p7554
I2
sS'breach'
p7555
I9
sS'abode'
p7556
I41
sS'Edomite'
p7557
I6
sS'Rabsaris'
p7558
I1
sS'ague'
p7559
I1
sS'Tahath'
p7560
I6
sS'Pethahiah'
p7561
I1
sS'spoon'
p7562
I12
sS'drinking'
p7563
I10
sS'Ashriel'
p7564
I1
sS'harlot'
p7565
I13
sS'nethermost'
p7566
I1
sS'Hezeki'
p7567
I1
sS'deals'
p7568
I19
sS'tenderness'
p7569
I1
sS'Halak'
p7570
I2
sS'?'
p7571
I920
sS'dealt'
p7572
I20
sS'Enoch'
p7573
I9
sS'Karkor'
p7574
I1
sS'Unto'
p7575
I22
sS'sentest'
p7576
I4
sS'abominably'
p7577
I1
sS'folds'
p7578
I2
sS'lightest'
p7579
I1
sS'Command'
p7580
I7
sS'plead'
p7581
I5
sS'harlots'
p7582
I1
sS'abominable'
p7583
I7
sS'folk'
p7584
I1
sS'Shebaniah'
p7585
I1
sS'Tebah'
p7586
I1
sS'Zion'
p7587
I6
sS'Ashtoreth'
p7588
I3
sS'Palestina'
p7589
I1
sS'Hazaraddar'
p7590
I1
sS'reaching'
p7591
I3
sS'Jahazah'
p7592
I1
sS'networks'
p7593
I2
sS'Anub'
p7594
I1
sS'Aiah'
p7595
I5
sS'waiting'
p7596
I1
sS'Maachah'
p7597
I14
sS'quarries'
p7598
I2
sS'Zior'
p7599
I1
sS'plucked'
p7600
I5
sS'slayeth'
p7601
I2
sS'Gunites'
p7602
I1
sS'chose'
p7603
I18
sS'degree'
p7604
I2
sS'cubits'
p7605
I121
sS'Up'
p7606
I8
sS'youngest'
p7607
I16
sS'desired'
p7608
I3
sS'separation'
p7609
I25
sS'Ittahkazin'
p7610
I1
sS'distressed'
p7611
I9
sS'Nibhaz'
p7612
I1
sS'helpers'
p7613
I2
sS'Hoshea'
p7614
I10
sS'requite'
p7615
I5
sS'spices'
p7616
I14
sS'Tohu'
p7617
I1
sS'apple'
p7618
I1
sS'heart'
p7619
I226
sS'forbid'
p7620
I12
sS'confession'
p7621
I1
sS'ensign'
p7622
I1
sS'messengers'
p7623
I61
sS'husbands'
p7624
I2
sS'Jehoshua'
p7625
I1
sS'Betharam'
p7626
I1
sS'lothe'
p7627
I1
sS'use'
p7628
I8
sS'from'
p7629
I1326
sS'figure'
p7630
I1
sS'consumption'
p7631
I2
sS'Hul'
p7632
I2
sS'abideth'
p7633
I2
sS'few'
p7634
I23
sS'Bedad'
p7635
I2
sS'weeping'
p7636
I4
sS'bitterly'
p7637
I2
sS'eagles'
p7638
I2
sS'Huz'
p7639
I1
sS'possession'
p7640
I69
sS'briers'
p7641
I2
sS'porch'
p7642
I13
sS'inclined'
p7643
I1
sS'heir'
p7644
I5
sS'sore'
p7645
I44
sS'women'
p7646
I60
sS'Benjamites'
p7647
I8
sS'Ephlal'
p7648
I2
sS'Gibeon'
p7649
I31
sS'Secacah'
p7650
I1
sS'us)'
p7651
I1
sS'Shemeber'
p7652
I1
sS'performed'
p7653
I5
sS'Pharah'
p7654
I1
sS'ordained'
p7655
I4
sS'thirsty'
p7656
I2
sS'onions'
p7657
I1
sS'sir'
p7658
I1
sS'united'
p7659
I1
sS'Ashterathite'
p7660
I1
sS'sit'
p7661
I26
sS'Shelomi'
p7662
I1
sS'six'
p7663
I121
sS'parlour'
p7664
I5
sS'camels'
p7665
I35
sS'instead'
p7666
I23
sS'struggled'
p7667
I1
sS'sin'
p7668
I224
sS'catcheth'
p7669
I1
sS'abuse'
p7670
I2
sS'Bethpazzez'
p7671
I1
sS'Bethhoron'
p7672
I11
sS'Agee'
p7673
I1
sS'Zelah'
p7674
I2
sS'lapwing'
p7675
I2
sS'light'
p7676
I54
sS'searcheth'
p7677
I1
sS'Zuph'
p7678
I3
sS'supplication'
p7679
I13
sS'Kings'
p7680
I6
sS'Shamhuth'
p7681
I1
sS'Jehoaddan'
p7682
I1
sS'Jaresiah'
p7683
I1
sS'stamped'
p7684
I3
sS'damsel'
p7685
I34
sS'interpreted'
p7686
I3
sS'strove'
p7687
I9
sS'interpreter'
p7688
I2
sS'faileth'
p7689
I1
sS'Merarites'
p7690
I1
sS'obeisance'
p7691
I8
sS'Tiglathpileser'
p7692
I3
sS'wilderness'
p7693
I156
sS'Ismaiah'
p7694
I1
sS'ships'
p7695
I8
sS'Bethaven'
p7696
I4
sS'Eshtemoa'
p7697
I5
sS'choose'
p7698
I36
sS'seeth'
p7699
I9
sS'covered'
p7700
I45
sS'Eshtemoh'
p7701
I1
sS'Dodanim'
p7702
I2
sS'Knowest'
p7703
I3
sS'eastward'
p7704
I30
sS'Nachon'
p7705
I1
sS'flour'
p7706
I54
sS'Adar'
p7707
I1
sS'commended'
p7708
I1
sS'flew'
p7709
I1
sS'Nahshon'
p7710
I9
sS'Adah'
p7711
I8
sS'Adoram'
p7712
I2
sS'Can'
p7713
I1
sS'discomfiture'
p7714
I1
sS'emerald'
p7715
I2
sS'flea'
p7716
I2
sS'Nachor'
p7717
I1
sS'flee'
p7718
I36
sS'fled'
p7719
I101
sS'sinners'
p7720
I3
sS'Ahishahar'
p7721
I1
sS'profaneth'
p7722
I1
sS'feast'
p7723
I48
sS'trimmed'
p7724
I1
sS'Mahavite'
p7725
I1
sS'Timnath'
p7726
I8
sS'Dekar'
p7727
I1
sS'Shecaniah'
p7728
I1
sS'gatherest'
p7729
I1
sS'lusteth'
p7730
I4
sS'remove'
p7731
I9
sS'Which'
p7732
I12
sS'our'
p7733
I292
sS'proclaim'
p7734
I8
sS'shearing'
p7735
I3
sS'out'
p7736
I1268
sS'sufficed'
p7737
I3
sS'Gidom'
p7738
I1
sS'This'
p7739
I123
sS'rites'
p7740
I1
sS'fleshhook'
p7741
I2
sS'shekel'
p7742
I40
sS'chapiter'
p7743
I11
sS'Zophah'
p7744
I2
sS'Zophai'
p7745
I1
sS'overtake'
p7746
I10
sS'Lahmi'
p7747
I1
sS'Mecherathite'
p7748
I1
sS'Zereth'
p7749
I1
sS'Bethshan'
p7750
I3
sS'hence'
p7751
I13
sS'plainly'
p7752
I4
sS'womenservants'
p7753
I3
sS'shoelatchet'
p7754
I1
sS'hitherto'
p7755
I8
sS'eleventh'
p7756
I10
sS'rovers'
p7757
I1
sS'homers'
p7758
I1
sS'Segub'
p7759
I3
sS'Miriam'
p7760
I14
sS'their'
p7761
I1477
sS'enough)'
p7762
I1
sS'battlement'
p7763
I1
sS'badness'
p7764
I1
sS'boil'
p7765
I8
sS'Camest'
p7766
I1
sS'mules'
p7767
I5
sS'diminish'
p7768
I5
sS'vestry'
p7769
I1
sS'Burning'
p7770
I1
sS'Maralah'
p7771
I1
sS'riches'
p7772
I11
sS'Askelon'
p7773
I3
sS'Lahairoi'
p7774
I2
sS'Galal'
p7775
I2
sS'Heleph'
p7776
I1
sS'fowl'
p7777
I23
sS'Shemidah'
p7778
I1
sS'westward'
p7779
I21
sS'Shemaiah'
p7780
I13
sS'Shaalbim'
p7781
I2
sS'sincerity'
p7782
I1
sS'Ephraim'
p7783
I86
sS'Jonadab'
p7784
I5
sS'afraid'
p7785
I61
sS'Jeroham'
p7786
I8
sS'bough'
p7787
I4
sS'After'
p7788
I12
sS'Kish'
p7789
I19
sS'supplanted'
p7790
I1
sS'trespassing'
p7791
I1
sS'Idalah'
p7792
I1
sS'which'
p7793
I1716
sS'Shochoh'
p7794
I2
sS'Shisha'
p7795
I1
sS'divers'
p7796
I10
sS'comest'
p7797
I20
sS'Obadiah'
p7798
I14
sS'who'
p7799
I179
sS'foes'
p7800
I1
sS'Shuni'
p7801
I2
sS'fortieth'
p7802
I3
sS'Abraham'
p7803
I162
sS'why'
p7804
I44
sS'Asiel'
p7805
I1
sS'statute'
p7806
I32
sS'discourage'
p7807
I1
sS'Punites'
p7808
I1
sS'dens'
p7809
I1
sS'High'
p7810
I3
sS'diggedst'
p7811
I1
sS'Beno'
p7812
I2
sS'Whose'
p7813
I7
sS'Shimi'
p7814
I1
sS'tidings'
p7815
I24
sS'Jediael'
p7816
I6
sS'wanting'
p7817
I2
sS'utter'
p7818
I5
sS'fear'
p7819
I80
sS'pleased'
p7820
I20
sS'murrain'
p7821
I1
sS'succour'
p7822
I2
sS'Shur'
p7823
I6
sS'glistering'
p7824
I1
sS'tribulation'
p7825
I3
sS'Selah'
p7826
I1
sS'Shua'
p7827
I2
sS'inhabit'
p7828
I1
sS'thousands'
p7829
I45
sS'counsellor'
p7830
I4
sS'spun'
p7831
I2
sS'THY'
p7832
I1
sS'watching'
p7833
I1
sS'spue'
p7834
I2
sS'ones'
p7835
I28
sS'words'
p7836
I157
sS'THE'
p7837
I3
sS'deceiver'
p7838
I1
sS'married'
p7839
I11
sS'winnoweth'
p7840
I1
sS'Hachmoni'
p7841
I1
sS'artificers'
p7842
I1
sS'ministered'
p7843
I11
sS'Nahallal'
p7844
I1
sS'Hazarenan'
p7845
I2
sS'generations'
p7846
I86
sS'view'
p7847
I4
sS'expel'
p7848
I2
sS'Ammah'
p7849
I1
sS'magnifical'
p7850
I1
sS'provokedst'
p7851
I1
sS'gutters'
p7852
I2
sS'scoured'
p7853
I1
sS'Meshelemiah'
p7854
I4
sS'(The'
p7855
I1
sS'Bilgah'
p7856
I1
sS'carriage'
p7857
I3
sS'fifties'
p7858
I6
sS'closed'
p7859
I4
sS'boughs'
p7860
I4
sS'bought'
p7861
I25
sS'weighing'
p7862
I2
sS'ability'
p7863
I1
sS'amen'
p7864
I1
sS'joy'
p7865
I7
sS'Keilah'
p7866
I16
sS'swift'
p7867
I2
sS'HOLINESS'
p7868
I2
sS'valiantly'
p7869
I2
sS'Sion'
p7870
I1
sS'safely'
p7871
I2
sS'wall'
p7872
I58
sS'pottage'
p7873
I6
sS'abhorred'
p7874
I7
sS'Hadashah'
p7875
I1
sS'Aharhel'
p7876
I1
sS'table'
p7877
I37
sS'narrowed'
p7878
I1
sS'Moreover'
p7879
I49
sS'withdrawn'
p7880
I1
sS'basons'
p7881
I13
sS'unclean'
p7882
I141
sS'Adrammelech'
p7883
I2
sS'provinces'
p7884
I4
sS'Ammishaddai'
p7885
I5
sS'hinds'
p7886
I1
sS'gravings'
p7887
I1
sS'transgressing'
p7888
I1
sS'general'
p7889
I1
sS'painted'
p7890
I1
sS'sufficient'
p7891
I3
sS'Iim'
p7892
I2
sS'Imri'
p7893
I1
sS'present'
p7894
I40
sS'Nahath'
p7895
I4
sS'Depart'
p7896
I4
sS'sanctify'
p7897
I39
sS'fearful'
p7898
I4
sS'Shimma'
p7899
I1
sS'Euphrates'
p7900
I10
sS'priesthood'
p7901
I5
sS'will'
p7902
I1106
sS'wild'
p7903
I10
sS'Elpalet'
p7904
I1
sS'Southward'
p7905
I1
sS'alive'
p7906
I57
sS'Nohah'
p7907
I1
sS'Seraiah'
p7908
I8
sS'whore'
p7909
I7
sS'vintage'
p7910
I3
sS'member'
p7911
I1
sS'merciful'
p7912
I8
sS'firmament'
p7913
I9
sS'Jakan'
p7914
I1
sS'Third'
p7915
I2
sS'Prophet'
p7916
I3
sS'conceived'
p7917
I30
sS'convocation'
p7918
I16
sS'beast'
p7919
I76
sS'armourbearer'
p7920
I18
sS'plowed'
p7921
I1
sS'stablish'
p7922
I3
sS'fighting'
p7923
I1
sS'tithes'
p7924
I8
sS'Mejarkon'
p7925
I1
sS'tails'
p7926
I1
sS'looked'
p7927
I60
sS'cried'
p7928
I68
sS'heavily'
p7929
I1
sS'necromancer'
p7930
I1
sS'obtain'
p7931
I1
sS'replenish'
p7932
I2
sS'Ahinoam'
p7933
I7
sS'Jabneel'
p7934
I2
sS'Akrabbim'
p7935
I2
sS'danced'
p7936
I2
sS'smite'
p7937
I69
sS'Lapidoth'
p7938
I1
sS'Far'
p7939
I2
sS'bell'
p7940
I4
sS'sky'
p7941
I1
sS'appertaineth'
p7942
I1
sS'book'
p7943
I75
sS'earnestly'
p7944
I3
sS'Sennacherib'
p7945
I4
sS'Naarai'
p7946
I1
sS'Girgashite'
p7947
I1
sS'sick'
p7948
I17
sS'Salah'
p7949
I6
sS'knop'
p7950
I10
sS'Belial'
p7951
I15
sS'know'
p7952
I140
sS'presume'
p7953
I1
sS'Gaba'
p7954
I1
sS'Hazelelponi'
p7955
I1
sS'shipmen'
p7956
I1
sS'perpetual'
p7957
I9
sS'feigned'
p7958
I1
sS'hosts'
p7959
I29
sS'Shoham'
p7960
I1
sS'wonders'
p7961
I13
sS'virginity'
p7962
I6
sS'exceed'
p7963
I2
sS'because'
p7964
I351
sS'Sun'
p7965
I1
sS'faithfully'
p7966
I2
sS'searching'
p7967
I1
sS'Debir'
p7968
I14
sS'Sur'
p7969
I1
sS'Camon'
p7970
I1
sS'leaf'
p7971
I2
sS'Hemam'
p7972
I1
sS'lead'
p7973
I12
sS'Taanach'
p7974
I6
sS'lean'
p7975
I5
sS'thank'
p7976
I4
sS'Shilonite'
p7977
I3
sS'leap'
p7978
I3
sS'Jeremoth'
p7979
I3
sS'earrings'
p7980
I9
sS'leader'
p7981
I2
sS'ripped'
p7982
I1
sS'murderer'
p7983
I12
sS'obey'
p7984
I23
sS'Sanctify'
p7985
I5
sS'Maarath'
p7986
I1
sS'spokes'
p7987
I1
sS'fords'
p7988
I2
sS'throne'
p7989
I56
sS'Moabitish'
p7990
I1
sS'carried'
p7991
I45
sS'Nogah'
p7992
I2
sS'saddle'
p7993
I2
sS'spilled'
p7994
I1
sS'huntest'
p7995
I1
sS'urged'
p7996
I6
sS'sakes'
p7997
I8
sS'swear'
p7998
I22
sS'Zeri'
p7999
I1
sS'sweat'
p8000
I1
sS'Kushaiah'
p8001
I1
sS'devouring'
p8002
I1
sS'owl'
p8003
I6
sS'own'
p8004
I143
sS'shouldest'
p8005
I21
sS'Nabal'
p8006
I22
sS'promise'
p8007
I3
sS'Rechah'
p8008
I1
sS'Dwell'
p8009
I1
sS'dispossessed'
p8010
I2
sS'Rechab'
p8011
I7
sS'Arza'
p8012
I1
sS'Uzal'
p8013
I2
sS'Upon'
p8014
I4
sS'Heshmon'
p8015
I1
sS'captains'
p8016
I69
sS'nourish'
p8017
I2
sS'fewness'
p8018
I1
sS'spittle'
p8019
I1
sS'Silla'
p8020
I1
sS'pestilence'
p8021
I10
sS'Issachar'
p8022
I39
sS'Pildash'
p8023
I1
sS'made'
p8024
I647
sS'Ten'
p8025
I2
sS'whether'
p8026
I62
sS'Harosheth'
p8027
I3
sS'record'
p8028
I4
sS'exaltest'
p8029
I1
sS'ruling'
p8030
I1
sS'cake'
p8031
I12
sS'bewail'
p8032
I3
sS'apothecary'
p8033
I3
sS'persuadeth'
p8034
I1
sS'dearth'
p8035
I3
sS'goodness'
p8036
I8
sS'Sheshan'
p8037
I5
sS'kneaded'
p8038
I2
sS'Sheshai'
p8039
I3
sS'Iddo'
p8040
I3
sS'quails'
p8041
I3
sS'conspired'
p8042
I12
sS'(As'
p8043
I1
sS'cave'
p8044
I31
sS'Zorathites'
p8045
I1
sS'other'
p8046
I219
sS'Five'
p8047
I2
sS'branch'
p8048
I6
sS'kinds'
p8049
I1
sS'Zibeon'
p8050
I8
sS'clift'
p8051
I1
sS'Jachin'
p8052
I7
sS'savest'
p8053
I1
sS'Mushi'
p8054
I8
sS'Tophel'
p8055
I1
sS'coupling'
p8056
I10
sS'Manassites'
p8057
I3
sS'Anethothite'
p8058
I1
sS'understand'
p8059
I6
sS'wroughtest'
p8060
I1
sS'bereaved'
p8061
I3
sS'jawbone'
p8062
I3
s.I385503
.I8062
.