(dp0
S'all'
p1
I5
sS'go'
p2
F0.2140468227424749
sS'seemed'
p3
F0.2140468227424749
s(S'<UNK>'
p4
S'to'
p5
tp6
F1.8181818181818183
sS'to'
p7
I9
sS'charge'
p8
F0.2140468227424749
sS'friendly'
p9
F0.2140468227424749
sS'fly'
p10
F0.2140468227424749
s(S'the'
p11
S'sink'
p12
tp13
F0.2140468227424749
s(S'IsTruthFul,IsPositive,review'
p14
S'Swissotelchicago'
p15
tp16
F0.2140468227424749
sS'every'
p17
F0.2140468227424749
s(g2
S'on'
p18
tp19
F0.2140468227424749
sS'cool'
p20
F0.2140468227424749
sS'did'
p21
F1.8181818181818183
sS'leave'
p22
F0.2140468227424749
s(g4
g4
tp23
I30
s(S'of'
p24
S'the'
p25
tp26
F0.9375
sS'talked'
p27
F0.2140468227424749
sS'me.'
p28
F0.2140468227424749
sS'hour.'
p29
F0.2140468227424749
s(S'was'
p30
S'really'
p31
tp32
F0.2140468227424749
s(S"n't"
p33
g10
tp34
F0.2140468227424749
s(S'minutes'
p35
S';'
p36
tp37
F0.2140468227424749
s(S'they'
p38
S'were'
p39
tp40
F0.2140468227424749
s(g36
S'so'
p41
tp42
F0.2140468227424749
s(g7
S'Chicago'
p43
tp44
F0.2140468227424749
s(g43
S'just'
p45
tp46
F0.2140468227424749
s(S'why'
p47
S'he'
p48
tp49
F0.2140468227424749
sg36
I9
s(S'me'
p50
S'almost'
p51
tp52
F0.2140468227424749
sg15
F0.2140468227424749
sS'told'
p53
F0.2140468227424749
s(S'from'
p54
S'my'
p55
tp56
F0.2140468227424749
s(S'long.'
p57
S'</s>'
p58
tp59
F0.2140468227424749
sg12
F0.2140468227424749
s(S'And'
p60
S'the'
p61
tp62
F0.2140468227424749
s(g4
S'for'
p63
tp64
F0.2140468227424749
s(S'the'
p65
S'Grand'
p66
tp67
F0.2140468227424749
s(g5
S'a'
p68
tp69
F0.2140468227424749
s(S'like'
p70
S'it'
p71
tp72
F0.2140468227424749
sS'experience'
p73
F0.2140468227424749
s(S'half'
p74
S'an'
p75
tp76
F0.2140468227424749
s(S'for'
p77
S'some'
p78
tp79
F0.2140468227424749
s(S'I'
p80
S'missed'
p81
tp82
F0.2140468227424749
s(g12
S'outlet'
p83
tp84
F0.2140468227424749
s(S'Park'
p85
S'in'
p86
tp87
F0.2140468227424749
s(S'in'
p88
S'Chicago'
p89
tp90
F0.2140468227424749
s(S'took'
p91
g50
tp92
F0.2140468227424749
s(S'off.'
p93
S'</s>'
p94
tp95
F0.2140468227424749
sS'from'
p96
I5
sS'<s>'
p97
I18
s(S'reason'
p98
g36
tp99
F0.2140468227424749
s(S'all'
p100
S'the'
p101
tp102
F0.2140468227424749
s(S"n't"
p103
S'know'
p104
tp105
F0.2140468227424749
s(S'opposite'
p106
S'of'
p107
tp108
F0.2140468227424749
s(g3
S'like'
p109
tp110
F0.2140468227424749
sS'phone'
p111
F0.2140468227424749
s(S'from'
p112
S'in'
p113
tp114
F0.2140468227424749
s(S'night'
p115
g57
tp116
F0.2140468227424749
s(g10
g100
tp117
F0.2140468227424749
sg93
F0.2140468227424749
sS'me'
p118
F0.9375
s(S'else'
p119
S'was'
p120
tp121
F0.2140468227424749
s(S'room'
p122
g4
tp123
F0.2140468227424749
sS'room'
p124
F4.4
sS'this'
p125
F0.9375
s(g36
S'and'
p126
tp127
F0.2140468227424749
s(g118
g80
tp128
F0.2140468227424749
sg55
I6
s(g61
S'walls'
p129
tp130
F0.2140468227424749
sS'concierge'
p131
F0.2140468227424749
s(g80
S'did'
p132
tp133
F0.9375
s(S'outlets'
p134
S'near'
p135
tp136
F0.2140468227424749
sS'something'
p137
F0.2140468227424749
s(S'everything'
p138
g4
tp139
F0.2140468227424749
s(g111
S'across'
p140
tp141
F0.2140468227424749
s(g9
S'and'
p142
tp143
F0.2140468227424749
s(S'at'
p144
S'night.'
p145
tp146
F0.2140468227424749
s(g4
S'night'
p147
tp148
F0.2140468227424749
s(S'dining'
p149
g73
tp150
F0.2140468227424749
s(S'had'
p151
S'all'
p152
tp153
F0.2140468227424749
sS'food.'
p154
F0.2140468227424749
sg68
I8
s(S"'d"
p155
S'say'
p156
tp157
F0.2140468227424749
s(g31
g4
tp158
F0.2140468227424749
sg41
F0.2140468227424749
s(S'the'
p159
S'restaurant'
p160
tp161
F0.2140468227424749
s(S'just'
p162
S'the'
p163
tp164
F0.2140468227424749
s(g89
g4
tp165
F0.2140468227424749
s(g129
S'were'
p166
tp167
F0.2140468227424749
sS'over'
p168
F0.2140468227424749
s(S'my'
p169
S'bed'
p170
tp171
F0.9375
s(S'everything'
p172
g119
tp173
F0.2140468227424749
sS'birds'
p174
F0.2140468227424749
s(S'seagulls'
p175
S'on'
p176
tp177
F0.2140468227424749
s(S'had'
p178
g68
tp179
F0.2140468227424749
s(g142
S'had'
p180
tp181
F0.2140468227424749
s(S'about'
p182
S'the'
p183
tp184
F0.2140468227424749
sS'good'
p185
F0.2140468227424749
s(S'were'
p186
S"n't"
p187
tp188
F0.2140468227424749
s(g131
g53
tp189
F0.2140468227424749
sS'food'
p190
F0.2140468227424749
s(g4
S'like'
p191
tp192
F0.9375
sg129
F0.2140468227424749
s(S'did'
p193
S'see'
p194
tp195
F0.2140468227424749
sg38
F0.2140468227424749
sg74
F0.2140468227424749
s(S'it'
p196
S'is'
p197
tp198
F0.2140468227424749
s(g180
S'stories'
p199
tp200
F0.2140468227424749
s(g53
g118
tp201
F0.2140468227424749
s(g163
S'way'
p202
tp203
F4.4
s(S'it'
p204
S'was'
p205
tp206
F0.2140468227424749
s(g71
S'and'
p207
tp208
F0.2140468227424749
s(S'he'
p209
S'was'
p210
tp211
F0.2140468227424749
s(g75
g29
tp212
F0.2140468227424749
s(g187
S'any'
p213
tp214
F0.2140468227424749
s(g124
g36
tp215
F0.2140468227424749
s(g207
g80
tp216
F0.9375
sS'really'
p217
F1.8181818181818183
sg81
F0.2140468227424749
s(S'really'
p218
S'thin.'
p219
tp220
F0.2140468227424749
sg219
F0.2140468227424749
s(g170
S'all'
p221
tp222
F0.2140468227424749
sg98
F0.2140468227424749
s(g83
S'to'
p223
tp224
F0.2140468227424749
s(S'was'
p225
S'just'
p226
tp227
F0.2140468227424749
sS'could'
p228
F1.8181818181818183
s(g104
g47
tp229
F0.2140468227424749
s(S'could'
p230
S'walk'
p231
tp232
F0.2140468227424749
s(S'down'
p233
S'the'
p234
tp235
F0.2140468227424749
s(S'the'
p236
S'country.'
p237
tp238
F0.2140468227424749
s(g4
S'my'
p239
tp240
F0.2140468227424749
s(S'some'
p241
S'really'
p242
tp243
F0.2140468227424749
s(g4
S'in'
p244
tp245
F0.9375
s(S'was'
p246
S'the'
p247
tp248
F0.2140468227424749
sg4
I63
s(S'could'
p249
g4
tp250
F0.2140468227424749
s(g4
S'of'
p251
tp252
F0.2140468227424749
sS'too'
p253
F0.2140468227424749
s(g41
g80
tp254
F0.2140468227424749
s(g66
g85
tp255
F0.2140468227424749
s(g18
S'and'
p256
tp257
F0.2140468227424749
s(g21
g33
tp258
F0.9375
s(S'interested'
p259
g28
tp260
F0.2140468227424749
sS'that'
p261
F1.8181818181818183
sg91
F0.2140468227424749
s(g22
S'my'
p262
tp263
F0.2140468227424749
s(S'<s>'
p264
g24
tp265
F0.2140468227424749
s(S'<s>'
p266
g80
tp267
F0.9375
sS'than'
p268
F0.2140468227424749
s(g36
S'but'
p269
tp270
I5
s(g147
g4
tp271
F0.2140468227424749
sg170
F0.9375
s(S'to'
p272
g4
tp273
F1.8181818181818183
s(g4
S'it'
p274
tp275
F0.9375
s(g81
g137
tp276
F0.2140468227424749
sg39
F1.8181818181818183
s(g96
g1
tp277
F0.2140468227424749
s(g226
g233
tp278
F0.2140468227424749
s(g256
S'on'
p279
tp280
F0.2140468227424749
sg43
F0.9375
s(S'much'
p281
g36
tp282
F0.2140468227424749
s(S'way'
p283
g36
tp284
F0.2140468227424749
sg156
F0.2140468227424749
sg213
F0.2140468227424749
s(g4
g138
tp285
F0.2140468227424749
sg149
F0.2140468227424749
s(S'the'
p286
S'room'
p287
tp288
F0.2140468227424749
s(S'like'
p289
S'about'
p290
tp291
F0.2140468227424749
s(g261
g159
tp292
F0.2140468227424749
sg106
F0.2140468227424749
s(S'<s>'
p293
S'is'
p294
tp295
F0.2140468227424749
s(g1
g168
tp296
F0.2140468227424749
s(S'people'
p297
g96
tp298
F0.2140468227424749
sg57
F0.2140468227424749
s(g4
g68
tp299
F0.2140468227424749
sg47
F0.2140468227424749
s(g279
g182
tp300
F0.2140468227424749
sS'giggling'
p301
F0.2140468227424749
s(S'were'
p302
g272
tp303
F0.2140468227424749
s(S'<s>'
p304
S'could'
p305
tp306
F0.2140468227424749
s(S'it'
p307
g3
tp308
F0.2140468227424749
sS'night.'
p309
F0.9375
s(S'<s>'
p310
g217
tp311
F0.2140468227424749
sS'enjoyed'
p312
F0.2140468227424749
s(g120
g93
tp313
F0.2140468227424749
s(S'?'
p314
g60
tp315
F0.2140468227424749
s(g80
g302
tp316
F0.2140468227424749
sS'pretty'
p317
F0.2140468227424749
s(g68
g185
tp318
F0.2140468227424749
s(g4
g246
tp319
F0.9375
s(g152
S'of'
p320
tp321
F0.2140468227424749
s(S'but'
p322
g307
tp323
F0.9375
s(S'near'
p324
g11
tp325
F0.2140468227424749
s(S'the'
p326
g4
tp327
F4.4
s(S'there'
p328
g186
tp329
F0.2140468227424749
sg83
F0.2140468227424749
s(g55
g124
tp330
F0.2140468227424749
s(g287
g324
tp331
F0.2140468227424749
s(g4
g36
tp332
F0.9375
sg140
F0.2140468227424749
s(S'and'
p333
g4
tp334
F0.2140468227424749
sS'steak'
p335
F0.2140468227424749
s(S'but'
p336
g80
tp337
F0.2140468227424749
s(g174
S'or'
p338
tp339
F0.2140468227424749
s(S'hear'
p340
g301
tp341
F0.2140468227424749
s(g39
g9
tp342
F0.2140468227424749
sg194
F0.2140468227424749
s(g36
g112
tp343
F0.2140468227424749
sg66
F0.2140468227424749
s(S'closer'
p344
g268
tp345
F0.2140468227424749
sg344
F0.2140468227424749
sg85
F0.2140468227424749
s(S'<s>'
p346
g77
tp347
F0.2140468227424749
s(g185
g149
tp348
F0.2140468227424749
s(g4
g333
tp349
F0.9375
s(g242
g20
tp350
F0.2140468227424749
s(g51
g74
tp351
F0.2140468227424749
s(g29
S'</s>'
p352
tp353
F0.2140468227424749
s(g268
g196
tp354
F0.2140468227424749
s(g73
g17
tp355
F0.2140468227424749
s(g4
S'</s>'
p356
tp357
I8
s(g166
g218
tp358
F0.2140468227424749
sg160
F0.2140468227424749
s(S'to'
p359
g65
tp360
F0.2140468227424749
s(g4
g249
tp361
F0.2140468227424749
s(g213
g134
tp362
F0.2140468227424749
sg256
I6
s(g262
g111
tp363
F0.2140468227424749
sS'wall'
p364
F0.2140468227424749
sg231
F0.2140468227424749
s(g223
g8
tp365
F0.2140468227424749
sg281
F0.9375
s(g197
g314
tp366
F0.2140468227424749
s(g290
S'this'
p367
tp368
F0.2140468227424749
sg119
F0.2140468227424749
s(S'that'
p369
g259
tp370
F0.2140468227424749
s(g36
g328
tp371
F0.2140468227424749
s(g63
g326
tp372
F0.2140468227424749
s(S'waitresses'
p373
g27
tp374
F0.2140468227424749
sg60
F0.2140468227424749
s(g210
g4
tp375
F0.2140468227424749
s(S'was'
p376
S'cooked'
p377
tp378
F0.2140468227424749
s(g219
S'</s>'
p379
tp380
F0.2140468227424749
sg33
F4.4
sg135
F0.9375
s(S'here.'
p381
S'</s>'
p382
tp383
F0.2140468227424749
s(g20
g174
tp384
F0.2140468227424749
sg51
F0.2140468227424749
sg197
F0.9375
sg71
I8
s(S'<s>'
p385
g4
tp386
I6
s(g309
S'</s>'
p387
tp388
F0.9375
s(g135
S'my'
p389
tp390
F0.2140468227424749
sg86
F1.8181818181818183
s(g294
g68
tp391
F0.2140468227424749
s(S'to'
p392
g22
tp393
F0.2140468227424749
s(S'it'
p394
g144
tp395
F0.2140468227424749
s(g239
g4
tp396
F0.9375
s(g191
g209
tp397
F0.2140468227424749
sg373
F0.2140468227424749
s(g154
S'</s>'
p398
tp399
F0.2140468227424749
s(g160
g225
tp400
F0.2140468227424749
s(g80
g70
tp401
F0.2140468227424749
sg381
F0.2140468227424749
sg80
I11
sg175
F0.2140468227424749
s(g17
g309
tp402
F0.2140468227424749
s(g221
g115
tp403
F0.2140468227424749
s(g183
g190
tp404
F0.2140468227424749
s(g137
g36
tp405
F0.2140468227424749
sg183
I16
sg104
F0.2140468227424749
sg162
F4.4
s(g48
g155
tp406
F0.2140468227424749
s(g125
S'was'
p407
tp408
F0.2140468227424749
s(g305
g340
tp409
F0.2140468227424749
sg382
I18
s(g4
S'that'
p410
tp411
F0.9375
sg178
F1.8181818181818183
s(g80
g4
tp412
F0.2140468227424749
s(g335
g376
tp413
F0.2140468227424749
s(S'about'
p414
g297
tp415
F0.2140468227424749
s(g407
g317
tp416
F0.2140468227424749
s(g202
g80
tp417
F0.2140468227424749
s(S'but'
p418
g125
tp419
F0.2140468227424749
s(g8
g394
tp420
F0.2140468227424749
sg70
F1.8181818181818183
s(g199
g414
tp421
F0.2140468227424749
sg237
F0.2140468227424749
sS'steps'
p422
F0.2140468227424749
sg115
F0.9375
s(g377
g162
tp423
F0.2140468227424749
s(g15
g80
tp424
F0.2140468227424749
sg297
F0.2140468227424749
sg241
F0.9375
s(g317
S'much'
p425
tp426
F0.2140468227424749
s(g78
g98
tp427
F0.2140468227424749
s(S'bed'
p428
g36
tp429
F0.2140468227424749
s(g364
g106
tp430
F0.2140468227424749
s(S'for'
p431
g154
tp432
F0.2140468227424749
s(S'from'
p433
g68
tp434
F0.2140468227424749
s(S'all'
p435
g369
tp436
F0.2140468227424749
sg431
F4.4
s(g107
g169
tp437
F0.9375
sg172
F0.9375
s(g140
g286
tp438
F0.2140468227424749
sg314
F0.2140468227424749
s(g217
g312
tp439
F0.2140468227424749
s(g80
g178
tp440
F4.4
s(g86
g35
tp441
F0.2140468227424749
s(S'did'
p442
g4
tp443
F0.2140468227424749
sg18
F4.4
sg182
F4.4
sg24
F1.8181818181818183
s(g190
g381
tp444
F0.2140468227424749
sg14
F0.2140468227424749
s(S'from'
p445
S'the'
p446
tp447
F0.2140468227424749
s(g425
g435
tp448
F0.2140468227424749
s(g422
g54
tp449
F0.2140468227424749
sg338
F0.2140468227424749
s(g97
g14
tp450
F0.2140468227424749
sg233
F0.2140468227424749
s(g312
g261
tp451
F0.2140468227424749
s(g269
g38
tp452
F0.2140468227424749
s(g194
g241
tp453
F0.2140468227424749
s(g274
g433
tp454
F0.2140468227424749
sg328
F0.2140468227424749
s(g228
g2
tp455
F0.2140468227424749
s(S'<s>'
p456
g21
tp457
F0.9375
sg202
F4.4
s(g205
g344
tp458
F0.2140468227424749
s(S'<s>'
p459
g335
tp460
F0.2140468227424749
sg376
I8
s(g25
g373
tp461
F0.2140468227424749
s(g231
g359
tp462
F0.2140468227424749
s(g113
g122
tp463
F0.2140468227424749
s(S'it'
p464
g91
tp465
F0.2140468227424749
s(g109
g172
tp466
F0.2140468227424749
s(g80
g228
tp467
F0.9375
sg269
I5
sg340
F0.2140468227424749
s(S'it'
p468
g68
tp469
F0.2140468227424749
sg48
F0.9375
s(g45
g431
tp470
F0.2140468227424749
sg199
F0.2140468227424749
s(g253
g281
tp471
F0.2140468227424749
sg35
F0.2140468227424749
s(g28
S'</s>'
p472
tp473
F0.2140468227424749
sg75
F0.2140468227424749
s(g446
g364
tp474
F0.2140468227424749
sg144
F0.2140468227424749
s(g237
S'</s>'
p475
tp476
F0.2140468227424749
sg259
F0.2140468227424749
s(S'had'
p477
g392
tp478
F0.2140468227424749
s(g156
g204
tp479
F0.2140468227424749
s(g176
S'the'
p480
tp481
F0.2140468227424749
s(S'way'
p482
g7
tp483
F0.2140468227424749
sg134
F0.2140468227424749
s(g367
g4
tp484
F0.2140468227424749
s(g338
g175
tp485
F0.2140468227424749
sg155
F0.2140468227424749
s(g244
g68
tp486
F0.2140468227424749
s(g68
g4
tp487
I7
s(S'<s>'
p488
g131
tp489
F0.2140468227424749
s(g126
g68
tp490
F0.2140468227424749
s(g234
g422
tp491
F0.2140468227424749
s(g27
g253
tp492
F0.2140468227424749
sg377
F0.2140468227424749
s(g168
g236
tp493
F0.2140468227424749
s(g410
g80
tp494
F0.9375
s(g301
g445
tp495
F0.2140468227424749
s.I299
.F708.0
.I120
.