(dp0
S'all'
p1
I5
sS'just'
p2
F5.142857142857143
sS'over'
p3
F0.3116883116883117
sS'go'
p4
F0.3116883116883117
sS'</s>'
p5
I18
sS'enjoyed'
p6
F0.3116883116883117
sS'seemed'
p7
F0.3116883116883117
sS'had'
p8
F1.6666666666666665
sS'to'
p9
I9
sS'charge'
p10
F0.3116883116883117
sS'pretty'
p11
F0.3116883116883117
sS'he'
p12
F1.75
sS'friendly'
p13
F0.3116883116883117
sS'me'
p14
F1.75
sS'good'
p15
F0.3116883116883117
sS'food'
p16
F0.3116883116883117
sS'walls'
p17
F0.3116883116883117
sS'every'
p18
F0.3116883116883117
sS'know'
p19
F0.3116883116883117
sS'they'
p20
F0.3116883116883117
sS'half'
p21
F0.3116883116883117
sS'cool'
p22
F0.3116883116883117
sS'like'
p23
F1.6666666666666665
sS'did'
p24
F1.6666666666666665
sS'country.'
p25
F0.3116883116883117
sS'across'
p26
F0.3116883116883117
sS'leave'
p27
F0.3116883116883117
sS'steps'
p28
F0.3116883116883117
sS'night'
p29
F1.75
sS'steak'
p30
F0.3116883116883117
sS'talked'
p31
F0.3116883116883117
sS'people'
p32
F0.3116883116883117
sS'me.'
p33
F0.3116883116883117
sS'some'
p34
F1.75
sS'hour.'
p35
F0.3116883116883117
sS'see'
p36
F0.3116883116883117
sS'Grand'
p37
F0.3116883116883117
sS'really'
p38
F1.6666666666666665
sS'closer'
p39
F0.3116883116883117
sS'missed'
p40
F0.3116883116883117
sS'for'
p41
F5.142857142857143
sS'Park'
p42
F0.3116883116883117
sS'birds'
p43
F0.3116883116883117
sS'everything'
p44
F1.75
sS'thin.'
p45
F0.3116883116883117
sS';'
p46
I9
sS'Swissotelchicago'
p47
F0.3116883116883117
sS'?'
p48
F0.3116883116883117
sS'told'
p49
F0.3116883116883117
sS'reason'
p50
F0.3116883116883117
sS'sink'
p51
F0.3116883116883117
sS'on'
p52
F5.142857142857143
sS'about'
p53
F5.142857142857143
sS'restaurant'
p54
F0.3116883116883117
sS'of'
p55
F1.6666666666666665
sS'could'
p56
F1.6666666666666665
sS'experience'
p57
F0.3116883116883117
sS'IsTruthFul,IsPositive,review'
p58
F0.3116883116883117
sS'here.'
p59
F0.3116883116883117
sS'or'
p60
F0.3116883116883117
sS'wall'
p61
F0.3116883116883117
sS'walk'
p62
F0.3116883116883117
sS'down'
p63
F0.3116883116883117
sS'<UNK>'
p64
I63
sS'from'
p65
I5
sS'<s>'
p66
I18
sS'there'
p67
F0.3116883116883117
sS'And'
p68
F0.3116883116883117
sS'much'
p69
F1.75
sS'too'
p70
F0.3116883116883117
sS'way'
p71
F5.142857142857143
sS'was'
p72
I8
sS'that'
p73
F1.6666666666666665
sS'took'
p74
F0.3116883116883117
sS'but'
p75
I5
sS'else'
p76
F0.3116883116883117
sS'phone'
p77
F0.3116883116883117
sS'hear'
p78
F0.3116883116883117
sS'than'
p79
F0.3116883116883117
sS'off.'
p80
F0.3116883116883117
sS'fly'
p81
F0.3116883116883117
sS'room'
p82
F5.142857142857143
sS'this'
p83
F1.75
sS'bed'
p84
F1.75
sS"n't"
p85
F5.142857142857143
sS'near'
p86
F1.75
sS'stories'
p87
F0.3116883116883117
sS'were'
p88
F1.6666666666666665
sS'minutes'
p89
F0.3116883116883117
sS'at'
p90
F0.3116883116883117
sS'and'
p91
I6
sS'Chicago'
p92
F1.75
sS'almost'
p93
F0.3116883116883117
sS'is'
p94
F1.75
sS'it'
p95
I8
sS'an'
p96
F0.3116883116883117
sS'concierge'
p97
F0.3116883116883117
sS'say'
p98
F0.3116883116883117
sS'something'
p99
F0.3116883116883117
sS'in'
p100
F1.6666666666666665
sS'my'
p101
I6
sS'any'
p102
F0.3116883116883117
sS'waitresses'
p103
F0.3116883116883117
sS'dining'
p104
F0.3116883116883117
sS'interested'
p105
F0.3116883116883117
sS'opposite'
p106
F0.3116883116883117
sS'I'
p107
I11
sS'seagulls'
p108
F0.3116883116883117
sS'outlets'
p109
F0.3116883116883117
sS'food.'
p110
F0.3116883116883117
sS"'d"
p111
F0.3116883116883117
sS'long.'
p112
F0.3116883116883117
sS'why'
p113
F0.3116883116883117
sS'a'
p114
I8
sS'giggling'
p115
F0.3116883116883117
sS'cooked'
p116
F0.3116883116883117
sS'so'
p117
F0.3116883116883117
sS'the'
p118
I16
sS'night.'
p119
F1.75
sS'outlet'
p120
F0.3116883116883117
s.F0.21813031161473087
.F291.21813031161474
.I120
.